
Garfield.elf:     file format elf32-littlenios2
Garfield.elf
architecture: nios2:r1, flags 0x00000112:
EXEC_P, HAS_SYMS, D_PAGED
start address 0x00020254

Program Header:
    LOAD off    0x00001020 vaddr 0x00020020 paddr 0x00020020 align 2**12
         filesz 0x00014c8c memsz 0x00018ff8 flags rwx
    LOAD off    0x00016000 vaddr 0x000a0000 paddr 0x000a0000 align 2**12
         filesz 0x00000000 memsz 0x00000000 flags r-x

Sections:
Idx Name          Size      VMA       LMA       File off  Algn
  0 .entry        00000000  000a0000  000a0000  00016000  2**5
                  CONTENTS, ALLOC, LOAD, READONLY, CODE
  1 .exceptions   00000234  00020020  00020020  00001020  2**2
                  CONTENTS, ALLOC, LOAD, READONLY, CODE
  2 .text         00012718  00020254  00020254  00001254  2**2
                  CONTENTS, ALLOC, LOAD, READONLY, CODE
  3 .rodata       00000728  0003296c  0003296c  0001396c  2**2
                  CONTENTS, ALLOC, LOAD, READONLY, DATA
  4 .rwdata       00001c18  00033094  00033094  00014094  2**2
                  CONTENTS, ALLOC, LOAD, DATA, SMALL_DATA
  5 .bss          0000436c  00034cac  00034cac  00015cac  2**2
                  ALLOC, SMALL_DATA
  6 .onchip_memory2_nios2 00000000  00039018  00039018  00016000  2**0
                  CONTENTS
  7 .shared_memory_master_hps_0 00000000  00060000  00060000  00016000  2**0
                  CONTENTS
  8 .shared_memory_master_nios_0 00000000  00090000  00090000  00016000  2**0
                  CONTENTS
  9 .epcs_flash_controller_0 00000000  000a0020  000a0020  00016000  2**0
                  CONTENTS
 10 .comment      00000023  00000000  00000000  00016000  2**0
                  CONTENTS, READONLY
 11 .debug_aranges 00000f30  00000000  00000000  00016028  2**3
                  CONTENTS, READONLY, DEBUGGING
 12 .debug_info   00023eaa  00000000  00000000  00016f58  2**0
                  CONTENTS, READONLY, DEBUGGING
 13 .debug_abbrev 00009b3d  00000000  00000000  0003ae02  2**0
                  CONTENTS, READONLY, DEBUGGING
 14 .debug_line   0000c367  00000000  00000000  0004493f  2**0
                  CONTENTS, READONLY, DEBUGGING
 15 .debug_frame  0000397c  00000000  00000000  00050ca8  2**2
                  CONTENTS, READONLY, DEBUGGING
 16 .debug_str    00006969  00000000  00000000  00054624  2**0
                  CONTENTS, READONLY, DEBUGGING
 17 .debug_loc    0000d1f9  00000000  00000000  0005af8d  2**0
                  CONTENTS, READONLY, DEBUGGING
 18 .debug_alt_sim_info 00000010  00000000  00000000  00068188  2**2
                  CONTENTS, READONLY, DEBUGGING
 19 .debug_ranges 00001358  00000000  00000000  00068198  2**3
                  CONTENTS, READONLY, DEBUGGING
 20 .thread_model 00000003  00000000  00000000  0006ef31  2**0
                  CONTENTS, READONLY
 21 .cpu          0000000c  00000000  00000000  0006ef34  2**0
                  CONTENTS, READONLY
 22 .qsys         00000001  00000000  00000000  0006ef40  2**0
                  CONTENTS, READONLY
 23 .simulation_enabled 00000001  00000000  00000000  0006ef41  2**0
                  CONTENTS, READONLY
 24 .sysid_hash   00000004  00000000  00000000  0006ef42  2**0
                  CONTENTS, READONLY
 25 .sysid_base   00000004  00000000  00000000  0006ef46  2**0
                  CONTENTS, READONLY
 26 .sysid_time   00000004  00000000  00000000  0006ef4a  2**0
                  CONTENTS, READONLY
 27 .stderr_dev   0000000f  00000000  00000000  0006ef4e  2**0
                  CONTENTS, READONLY
 28 .stdin_dev    0000000f  00000000  00000000  0006ef5d  2**0
                  CONTENTS, READONLY
 29 .stdout_dev   0000000f  00000000  00000000  0006ef6c  2**0
                  CONTENTS, READONLY
 30 .sopc_system_name 0000000f  00000000  00000000  0006ef7b  2**0
                  CONTENTS, READONLY
 31 .quartus_project_dir 0000007d  00000000  00000000  0006ef8a  2**0
                  CONTENTS, READONLY
 32 .sopcinfo     00328ef3  00000000  00000000  0006f007  2**0
                  CONTENTS, READONLY
SYMBOL TABLE:
000a0000 l    d  .entry	00000000 .entry
00020020 l    d  .exceptions	00000000 .exceptions
00020254 l    d  .text	00000000 .text
0003296c l    d  .rodata	00000000 .rodata
00033094 l    d  .rwdata	00000000 .rwdata
00034cac l    d  .bss	00000000 .bss
00039018 l    d  .onchip_memory2_nios2	00000000 .onchip_memory2_nios2
00060000 l    d  .shared_memory_master_hps_0	00000000 .shared_memory_master_hps_0
00090000 l    d  .shared_memory_master_nios_0	00000000 .shared_memory_master_nios_0
000a0020 l    d  .epcs_flash_controller_0	00000000 .epcs_flash_controller_0
00000000 l    d  .comment	00000000 .comment
00000000 l    d  .debug_aranges	00000000 .debug_aranges
00000000 l    d  .debug_info	00000000 .debug_info
00000000 l    d  .debug_abbrev	00000000 .debug_abbrev
00000000 l    d  .debug_line	00000000 .debug_line
00000000 l    d  .debug_frame	00000000 .debug_frame
00000000 l    d  .debug_str	00000000 .debug_str
00000000 l    d  .debug_loc	00000000 .debug_loc
00000000 l    d  .debug_alt_sim_info	00000000 .debug_alt_sim_info
00000000 l    d  .debug_ranges	00000000 .debug_ranges
00000000 l    df *ABS*	00000000 ../Garfield_bsp//obj/HAL/src/crt0.o
00020288 l       .text	00000000 alt_after_alt_main
00000000 l    df *ABS*	00000000 obj/default/os/Source/portable/port_asm.o
00020020 l       .exceptions	00000000 save_context
0002009c l       .exceptions	00000000 save_sp_to_pxCurrentTCB
000200ac l       .exceptions	00000000 hw_irq_test
00020150 l       .exceptions	00000000 soft_exceptions
000200c0 l       .exceptions	00000000 hw_irq_handler
000200d4 l       .exceptions	00000000 restore_context
0002016c l       .exceptions	00000000 call_scheduler
00000000 l    df *ABS*	00000000 alt_irq_handler.c
00000000 l    df *ABS*	00000000 hello_world.c
00000000 l    df *ABS*	00000000 croutine.c
00000000 l    df *ABS*	00000000 event_groups.c
0002093c l     F .text	00000070 prvTestWaitCondition
00000000 l    df *ABS*	00000000 heap_1.c
00034d38 l     O .bss	00004000 ucHeap
00034cac l     O .bss	00000004 xNextFreeByte
00034cb0 l     O .bss	00000004 pucAlignedHeap.2815
00000000 l    df *ABS*	00000000 list.c
00000000 l    df *ABS*	00000000 port.c
00020d68 l     F .text	0000002c prvReadGp
00020ecc l     F .text	00000088 prvSetupTimerInterrupt
00000000 l    df *ABS*	00000000 queue.c
000212c0 l     F .text	00000084 prvInitialiseNewQueue
00021b10 l     F .text	00000160 prvCopyDataToQueue
00021e90 l     F .text	00000058 prvIsQueueFull
00021d0c l     F .text	000000f4 prvUnlockQueue
00021c70 l     F .text	0000009c prvCopyDataFromQueue
00021e00 l     F .text	00000050 prvIsQueueEmpty
00000000 l    df *ABS*	00000000 tasks.c
00038d38 l     O .bss	00000064 pxReadyTasksLists
00038d9c l     O .bss	00000014 xDelayedTaskList1
00038db0 l     O .bss	00000014 xDelayedTaskList2
00034cb8 l     O .bss	00000004 pxDelayedTaskList
00034cbc l     O .bss	00000004 pxOverflowDelayedTaskList
00038dc4 l     O .bss	00000014 xPendingReadyList
00038dd8 l     O .bss	00000014 xSuspendedTaskList
00034cc0 l     O .bss	00000004 uxCurrentNumberOfTasks
00034cc4 l     O .bss	00000004 xTickCount
00034cc8 l     O .bss	00000004 uxTopReadyPriority
00034ccc l     O .bss	00000004 xSchedulerRunning
00034cd0 l     O .bss	00000004 uxPendedTicks
00034cd4 l     O .bss	00000004 xYieldPending
00034cd8 l     O .bss	00000004 xNumOfOverflows
00034cdc l     O .bss	00000004 uxTaskNumber
00034ce0 l     O .bss	00000004 xNextTaskUnblockTime
00034ce4 l     O .bss	00000004 xIdleTaskHandle
00034ce8 l     O .bss	00000004 uxSchedulerSuspended
00022018 l     F .text	00000198 prvInitialiseNewTask
000221b0 l     F .text	000000fc prvAddNewTaskToReadyList
00022fe8 l     F .text	000000ac prvInitialiseTaskLists
000238d8 l     F .text	000000e8 prvAddCurrentTaskToDelayedList
000230b4 l     F .text	00000068 prvResetNextTaskUnblockTime
000224d8 l     F .text	00000094 prvTaskIsTaskSuspended
00022fb4 l     F .text	00000034 prvIdleTask
00023094 l     F .text	00000020 prvCheckTasksWaitingTermination
00000000 l    df *ABS*	00000000 timers.c
00000000 l    df *ABS*	00000000 alf_sharedmemory.cpp
00034c44 l     O .rwdata	00000001 _ZStL19piecewise_construct
00034c45 l     O .rwdata	00000001 _ZStL13allocator_arg
00000000 l    df *ABS*	00000000 alf_data_info.cpp
00000000 l    df *ABS*	00000000 Display.cpp
00032985 l     O .rodata	00000500 _ZL4font
00034cf4 l     O .bss	00000002 _ZZN7Display9writeLineEPKcthE8cursor_y
00000000 l    df *ABS*	00000000 Drive.cpp
00000000 l    df *ABS*	00000000 Steering.cpp
00000000 l    df *ABS*	00000000 mpu6050.cpp
00000000 l    df *ABS*	00000000 ultrasonic.cpp
00000000 l    df *ABS*	00000000 main.cpp
00034c49 l     O .rwdata	00000001 _ZStL19piecewise_construct
00034c4a l     O .rwdata	00000001 _ZStL13allocator_arg
00000000 l    df *ABS*	00000000 tasks_nios.cpp
00034c4c l     O .rwdata	00000001 _ZStL19piecewise_construct
00034c4d l     O .rwdata	00000001 _ZStL13allocator_arg
00034c50 l     O .rwdata	00000004 _ZL15pulses_to_meter
00034c54 l     O .rwdata	00000001 _ZL18max_steering_angle
00034c55 l     O .rwdata	00000001 _ZL15max_drive_speed
00034c56 l     O .rwdata	00000001 _ZL23emergency_stop_distance
00034c57 l     O .rwdata	00000001 _ZL20close_range_distance
00034c58 l     O .rwdata	00000001 _ZL17close_range_speed
00034c59 l     O .rwdata	00000001 _ZL7timeout
00038ed8 l     O .bss	0000000c _ZL15global_acc_data
00038ee4 l     O .bss	0000000c _ZL16global_gyro_data
00034d04 l     O .bss	00000004 _ZL16global_temp_data
00034d08 l     O .bss	00000002 _ZL25global_us_front_left_data
00034d0a l     O .bss	00000002 _ZL26global_us_front_right_data
00034d0c l     O .bss	00000002 _ZL24global_us_rear_left_data
00034d0e l     O .bss	00000002 _ZL25global_us_rear_right_data
00027ac0 l     F .text	00000074 _Z41__static_initialization_and_destruction_0ii
00027b34 l     F .text	00000030 _GLOBAL__sub_I_sharedMem
00000000 l    df *ABS*	00000000 libgcc2.c
00000000 l    df *ABS*	00000000 libgcc2.c
00000000 l    df *ABS*	00000000 lib2-divmod.c
00000000 l    df *ABS*	00000000 divsf3.c
00000000 l    df *ABS*	00000000 gesf2.c
00000000 l    df *ABS*	00000000 mulsf3.c
00000000 l    df *ABS*	00000000 subsf3.c
00000000 l    df *ABS*	00000000 fixsfsi.c
00000000 l    df *ABS*	00000000 floatsisf.c
00000000 l    df *ABS*	00000000 floatunsisf.c
00000000 l    df *ABS*	00000000 adddf3.c
00000000 l    df *ABS*	00000000 divdf3.c
00000000 l    df *ABS*	00000000 gedf2.c
00000000 l    df *ABS*	00000000 muldf3.c
00000000 l    df *ABS*	00000000 subdf3.c
00000000 l    df *ABS*	00000000 fixdfsi.c
00000000 l    df *ABS*	00000000 floatsidf.c
00000000 l    df *ABS*	00000000 floatunsidf.c
00000000 l    df *ABS*	00000000 extendsfdf2.c
00000000 l    df *ABS*	00000000 truncdfsf2.c
00000000 l    df *ABS*	00000000 libgcc2.c
00000000 l    df *ABS*	00000000 libgcc2.c
00000000 l    df *ABS*	00000000 memcpy.c
00000000 l    df *ABS*	00000000 memset.c
00000000 l    df *ABS*	00000000 puts.c
00000000 l    df *ABS*	00000000 strlen.c
00000000 l    df *ABS*	00000000 findfp.c
0002ba88 l     F .text	00000008 __fp_unlock
0002ba9c l     F .text	0000019c __sinit.part.1
0002bc38 l     F .text	00000008 __fp_lock
00000000 l    df *ABS*	00000000 fvwrite.c
00000000 l    df *ABS*	00000000 fwalk.c
00000000 l    df *ABS*	00000000 impure.c
00033094 l     O .rwdata	00000424 impure_data
00000000 l    df *ABS*	00000000 mallocr.c
00000000 l    df *ABS*	00000000 memchr.c
00000000 l    df *ABS*	00000000 memmove.c
00000000 l    df *ABS*	00000000 mallocr.c
00000000 l    df *ABS*	00000000 sbrkr.c
00000000 l    df *ABS*	00000000 stdio.c
00000000 l    df *ABS*	00000000 writer.c
00000000 l    df *ABS*	00000000 wsetup.c
00000000 l    df *ABS*	00000000 closer.c
00000000 l    df *ABS*	00000000 fclose.c
00000000 l    df *ABS*	00000000 fflush.c
00000000 l    df *ABS*	00000000 mallocr.c
00000000 l    df *ABS*	00000000 int_errno.c
00000000 l    df *ABS*	00000000 lseekr.c
00000000 l    df *ABS*	00000000 makebuf.c
00000000 l    df *ABS*	00000000 readr.c
00000000 l    df *ABS*	00000000 fstatr.c
00000000 l    df *ABS*	00000000 isattyr.c
00000000 l    df *ABS*	00000000 alt_close.c
0002e2c0 l     F .text	0000003c alt_get_errno
00000000 l    df *ABS*	00000000 alt_dev.c
0002e3cc l     F .text	0000002c alt_dev_null_write
00000000 l    df *ABS*	00000000 alt_errno.c
00000000 l    df *ABS*	00000000 alt_fstat.c
0002e3f8 l     F .text	0000003c alt_get_errno
00000000 l    df *ABS*	00000000 alt_irq_vars.c
00000000 l    df *ABS*	00000000 alt_isatty.c
0002e4e4 l     F .text	0000003c alt_get_errno
00000000 l    df *ABS*	00000000 alt_lseek.c
0002e5c4 l     F .text	0000003c alt_get_errno
00000000 l    df *ABS*	00000000 alt_main.c
00000000 l    df *ABS*	00000000 alt_malloc_lock.c
00000000 l    df *ABS*	00000000 alt_read.c
0002e798 l     F .text	0000003c alt_get_errno
00000000 l    df *ABS*	00000000 alt_release_fd.c
00000000 l    df *ABS*	00000000 alt_sbrk.c
00034c88 l     O .rwdata	00000004 heap_end
00000000 l    df *ABS*	00000000 alt_write.c
0002e9e4 l     F .text	0000003c alt_get_errno
00000000 l    df *ABS*	00000000 alt_sys_init.c
0002eb18 l     F .text	00000034 alt_dev_reg
0002eb4c l     F .text	0000003c alt_get_errno
0002eb88 l     F .text	00000068 alt_avalon_mutex_reg
00033a68 l     O .rwdata	000000cc epcs_flash_controller_0
00033b34 l     O .rwdata	00001060 jtag_uart_nios2
00034b94 l     O .rwdata	00000048 mailbox_arm2nios_0
00034bdc l     O .rwdata	00000048 mailbox_nios2arm_0
00034c24 l     O .rwdata	00000010 shared_memory_mutex_master_hps_0
00034c34 l     O .rwdata	00000010 shared_memory_mutex_master_nios_0
00000000 l    df *ABS*	00000000 PWM_Generator.c
00000000 l    df *ABS*	00000000 Rotary_Encoder.c
00000000 l    df *ABS*	00000000 altera_avalon_epcs_flash_controller.c
0002edbc l     F .text	00000034 alt_flash_device_register
0002ee44 l     F .text	000003f8 alt_epcs_flash_query
0002f23c l     F .text	000000ec alt_epcs_flash_memcmp
0002f614 l     F .text	00000094 alt_epcs_test_address
00000000 l    df *ABS*	00000000 altera_avalon_jtag_uart_fd.c
00000000 l    df *ABS*	00000000 altera_avalon_jtag_uart_init.c
0002fad0 l     F .text	00000210 altera_avalon_jtag_uart_irq
0002fce0 l     F .text	000000a0 altera_avalon_jtag_uart_timeout
00000000 l    df *ABS*	00000000 altera_avalon_jtag_uart_ioctl.c
00000000 l    df *ABS*	00000000 altera_avalon_jtag_uart_read.c
00000000 l    df *ABS*	00000000 altera_avalon_jtag_uart_write.c
00000000 l    df *ABS*	00000000 altera_avalon_mailbox_simple.c
00030318 l     F .text	00000090 altera_avalon_mailbox_identify
000303a8 l     F .text	00000078 altera_avalon_mailbox_post
00030420 l     F .text	0000013c altera_avalon_mailbox_simple_tx_isr
0003055c l     F .text	000000ac altera_avalon_mailbox_simple_rx_isr
00000000 l    df *ABS*	00000000 altera_avalon_mutex.c
00030c50 l     F .text	0000003c alt_get_errno
00030c8c l     F .text	0000007c alt_mutex_trylock
00000000 l    df *ABS*	00000000 altera_avalon_spi.c
00000000 l    df *ABS*	00000000 altera_avalon_timer_sc.c
00031118 l     F .text	0000007c alt_avalon_timer_sc_irq
00000000 l    df *ABS*	00000000 epcs_commands.c
00031264 l     F .text	00000038 epcs_test_wip
0003129c l     F .text	0000003c epcs_await_wip_released
00000000 l    df *ABS*	00000000 i2c_opencores.c
00000000 l    df *ABS*	00000000 alt_alarm_start.c
00000000 l    df *ABS*	00000000 alt_dev_llist_insert.c
00031be0 l     F .text	0000003c alt_get_errno
00000000 l    df *ABS*	00000000 alt_do_ctors.c
00000000 l    df *ABS*	00000000 alt_do_dtors.c
00000000 l    df *ABS*	00000000 alt_find_dev.c
00000000 l    df *ABS*	00000000 alt_flash_dev.c
00000000 l    df *ABS*	00000000 alt_io_redirect.c
00031ecc l     F .text	000000c4 alt_open_fd
00000000 l    df *ABS*	00000000 alt_open.c
0003200c l     F .text	0000003c alt_get_errno
00032048 l     F .text	000000c4 alt_file_locked
00000000 l    df *ABS*	00000000 alt_tick.c
00000000 l    df *ABS*	00000000 altera_nios2_gen2_irq.c
00000000 l    df *ABS*	00000000 alt_find_file.c
00000000 l    df *ABS*	00000000 alt_get_fd.c
00000000 l    df *ABS*	00000000 atexit.c
00000000 l    df *ABS*	00000000 exit.c
00000000 l    df *ABS*	00000000 memcmp.c
00000000 l    df *ABS*	00000000 __atexit.c
00000000 l    df *ABS*	00000000 __call_atexit.c
00000000 l    df *ABS*	00000000 alt_exit.c
00023c68 g     F .text	0000004c _ZN20Alf_SharedMemoryComm11WaitForLockEPv
00027838 g     F .text	000001c0 _Z21setMotor_and_SteeringPv
000309c4 g     F .text	00000150 altera_avalon_mailbox_send
0002f588 g     F .text	0000008c alt_epcs_flash_get_info
0002e26c g     F .text	00000054 _isatty_r
0002e6d4 g     F .text	0000007c alt_main
0002b91c g     F .text	000000c0 _puts_r
00038f18 g     O .bss	00000100 alt_irq
0002df94 g     F .text	00000060 _lseek_r
000200c4 g       .exceptions	00000000 restore_sp_from_pxCurrentTCB
00022c44 g     F .text	00000064 vTaskPlaceOnUnorderedEventList
00020ab0 g     F .text	00000028 xPortGetFreeHeapSize
00020694 g     F .text	0000003c xEventGroupGetBitsFromISR
00039018 g       *ABS*	00000000 __alt_heap_start
00027b64  w    F .text	0000004c _ZN20Garifield_RingBufferIN20Alf_SharedMemoryComm9mailbox_sELm12EEC1Ev
0002d548 g     F .text	0000005c __sseek
0002bdd8 g     F .text	00000010 __sinit
0002bc40 g     F .text	00000068 __sfmoreglue
0002e774 g     F .text	00000024 __malloc_unlock
00027ea8 g     F .text	00000440 .hidden __divsf3
00020314 g     F .text	0000017c xEventGroupSync
0002cd5c g     F .text	0000015c memmove
0002311c g     F .text	00000054 vTaskEnterCritical
0002bdc0 g     F .text	00000018 _cleanup
0002611c g     F .text	000000ac _ZN8Steering3SetEa
000214f8 g     F .text	000000e8 xQueueGenericSendFromISR
00022918 g     F .text	00000040 pcTaskGetName
00030dc4 g     F .text	00000040 altera_avalon_mutex_trylock
00028c84 g     F .text	00000070 .hidden __fixsfsi
00025cd4 g     F .text	00000038 _ZN7Display5cp437Eb
00025d0c g     F .text	0000012c _ZN7Display11setRotationEh
00027a44 g     F .text	0000007c _Z11Mailbox_isrPvm
0002a09c g     F .text	000000dc .hidden __gtdf2
00032404 g     F .text	00000024 altera_nios2_gen2_irq_init
00024004 g     F .text	000000a8 _ZN20Alf_SharedMemoryComm4ReadER17Alf_Drive_Command
000312d8 g     F .text	000000fc epcs_sector_erase
00023f5c g     F .text	000000a8 _ZN20Alf_SharedMemoryComm4ReadER14Alf_Drive_Info
000a0000 g     F .entry	00000000 __reset
00034cb4 g     O .bss	00000004 pxCurrentTCB
00027194 g     F .text	000000b8 _ZNK16UltraSonicDevice20checkUltraSonicStateERb
00030e58 g     F .text	00000074 altera_avalon_mutex_is_mine
0002028c g     F .text	00000034 main2
000259e8 g     F .text	000001d0 _ZN7Display8fillRectEsssst
0002e210 g     F .text	0000005c _fstat_r
00024568  w    F .text	00000110 _ZN20Garifield_RingBufferIN20Alf_SharedMemoryComm9mailbox_sELm12EE4pushERKS1_
00034d1c g     O .bss	00000004 errno
00026b84 g     F .text	00000080 _ZN7mpu605010readStatusEv
0002d4c4 g     F .text	00000008 __seofread
00034d28 g     O .bss	00000004 alt_argv
00034cf6 g     O .bss	00000001 _ZN5Drive15block_front_dirE
0003cc44 g       *ABS*	00000000 _gp
00030b14 g     F .text	0000013c altera_avalon_mailbox_retrieve_poll
000287a0 g     F .text	000004e4 .hidden __subsf3
00025ff4 g     F .text	00000020 _ZN5Drive20GetMax_Speed_PercentEv
00026cec g     F .text	00000080 _ZNK16UltraSonicDevice17writeGAINRegisterEh
00020490 g     F .text	0000019c xEventGroupWaitBits
00034cf8 g     O .bss	00000001 _ZN5Drive13current_speedE
000338e8 g     O .rwdata	00000180 alt_fd_list
00034cf2 g     O .bss	00000002 _ZN7Display8_bgcolorE
00020e74 g     F .text	00000038 xPortStartScheduler
00025060 g     F .text	00000048 _ZN7Display12writecommandEh
0003151c g     F .text	0000006c epcs_write_status_register
000226d8 g     F .text	00000048 vTaskEndScheduler
00026c04 g     F .text	00000038 _ZN16UltraSonicDeviceC1E17UltraSonicAddress
00031d80 g     F .text	00000090 alt_find_dev
0002b6ac g     F .text	00000148 memcpy
00022bf4 g     F .text	00000050 vTaskPlaceOnEventList
0002ba90 g     F .text	0000000c _cleanup_r
00023cb4 g     F .text	00000048 _ZN20Alf_SharedMemoryComm11ReleaseLockEPv
0002b20c g     F .text	000000dc .hidden __floatsidf
00031f90 g     F .text	0000007c alt_io_redirect
000261c8 g     F .text	00000048 _ZN7mpu6050C1E17MPU6050_Addresses
00021994 g     F .text	0000007c xQueuePeekFromISR
0003296c g       *ABS*	00000000 __DTOR_END__
0002ed10 g     F .text	0000002c ROT_ENC_GetRotations
0002b9dc g     F .text	00000014 puts
00090000 g       *ABS*	00000000 __alt_mem_shared_memory_master_nios_0
000318f8 g     F .text	00000094 I2C_start
000249a0 g     F .text	00000054 _Z8delay_msh
00020a68 g     F .text	00000024 vPortFree
00030608 g     F .text	00000078 altera_avalon_mailbox_simple_init
00038e0c g     O .bss	000000cc sharedMem
0002f720 g     F .text	00000100 alt_epcs_flash_write_block
0002fed8 g     F .text	0000021c altera_avalon_jtag_uart_read
00027dec g     F .text	00000064 .hidden __udivsi3
0002e520 g     F .text	000000a4 isatty
0003094c g     F .text	00000078 altera_avalon_mailbox_status
00030844 g     F .text	00000108 altera_avalon_mailbox_close
00027c80 g     F .text	00000074 .hidden __fixunsdfsi
00020b6c g     F .text	0000008c vListInsertEnd
00034d18 g     O .bss	00000004 __malloc_top_pad
00027518 g     F .text	00000208 _Z14readUltraSonicPv
000202c0 g     F .text	00000054 xEventGroupCreate
0002be28 g     F .text	000004bc __sfvwrite_r
0002d41c g     F .text	00000054 _sbrk_r
000208c4 g     F .text	0000003c vEventGroupSetBitsCallback
00034cf7 g     O .bss	00000001 _ZN5Drive14block_rear_dirE
0002e1b0 g     F .text	00000060 _read_r
00020b40 g     F .text	0000002c vListInitialiseItem
00034c7c g     O .rwdata	00000004 alt_max_fd
00020f54 g     F .text	00000048 vPortSysTickHandler
0002d7b4 g     F .text	000000f0 _fclose_r
00027bb0  w    F .text	00000070 _ZN20Alf_SharedMemoryCommC1Ev
00024828  w    F .text	000000bc _ZN20Alf_SharedMemoryComm12HardwareReadI17Alf_Drive_CommandEE15ALF_ERROR_CODESRT_RKmS6_
0002db30 g     F .text	00000030 fflush
00020000 g       *ABS*	00000000 __alt_mem_onchip_memory2_nios2
00034d14 g     O .bss	00000004 __malloc_max_sbrked_mem
00020f9c g     F .text	00000170 alt_irq_register
0002b390 g     F .text	00000110 .hidden __extendsfdf2
00028f08 g     F .text	000008ac .hidden __adddf3
0002f6a8 g     F .text	00000078 alt_epcs_flash_erase_block
0002e600 g     F .text	000000d4 lseek
00030ecc g     F .text	00000050 altera_avalon_mutex_first_lock
000240ac  w    F .text	00000194 _ZN20Alf_SharedMemoryComm13HardwareWriteI17Alf_Drive_CommandEE15ALF_ERROR_CODESRKT_RKmS7_
00034c5c g     O .rwdata	00000004 _global_impure_ptr
000317e8 g     F .text	0000005c epcs_exit_4_bytes_mode
000206d0 g     F .text	00000180 xEventGroupSetBits
0002ceb8 g     F .text	00000564 _realloc_r
00025508 g     F .text	00000464 _ZN7Display9writeLineEPKcth
00039018 g       *ABS*	00000000 __bss_end
000322fc g     F .text	00000108 alt_tick
00025fd4 g     F .text	00000020 _ZN5Drive16GetCurrent_speedEv
000239c0 g     F .text	000001cc _ZN20Alf_SharedMemoryComm4InitEmmmmmmtm
0002b2e8 g     F .text	000000a8 .hidden __floatunsidf
00024b9c g     F .text	00000064 _ZN7DisplayC2Ess
000209ac g     F .text	000000bc pvPortMalloc
0002bdf8 g     F .text	00000018 __fp_lock_all
00021ad4 g     F .text	0000003c vQueueDelete
00023bfc g     F .text	00000034 _ZN20Alf_SharedMemoryComm23DisableMailboxInterruptEv
00020eac g     F .text	00000020 vPortEndScheduler
00020ad8 g     F .text	00000068 vListInitialise
00032260 g     F .text	0000009c alt_alarm_stop
00034cf0 g     O .bss	00000001 _ZN7Display12_currentLineE
00034d20 g     O .bss	00000004 alt_irq_active
0002017c g     F .exceptions	000000d8 alt_irq_handler
000338c0 g     O .rwdata	00000028 alt_dev_null
000228a4 g     F .text	00000028 xTaskGetTickCount
00021344 g     F .text	000001b4 xQueueGenericSend
00030d08 g     F .text	00000054 altera_avalon_mutex_open
000246e0  w    F .text	0000008c _ZN20Garifield_RingBufferIN20Alf_SharedMemoryComm9mailbox_sELm12EE3popEv
00026054 g     F .text	000000c8 _ZN8Steering4InitEh
000248e4 g     F .text	0000006c _Z10set_tft_dcb
0002b18c g     F .text	00000080 .hidden __fixdfsi
00025bb8 g     F .text	0000011c _ZN7Display13setAddrWindowEtttt
000246a0  w    F .text	00000040 _ZN20Garifield_RingBufferIN20Alf_SharedMemoryComm9mailbox_sELm12EE3topEv
00034c74 g     O .rwdata	00000008 alt_dev_list
0002ea20 g     F .text	000000f8 write
000282e8 g     F .text	000000bc .hidden __gtsf2
00022ca8 g     F .text	000000f4 xTaskRemoveFromEventList
00034c94 g     O .rwdata	00000008 alt_mutex_list
0002e434 g     F .text	000000b0 fstat
0002062c g     F .text	00000068 xEventGroupClearBits
00023b8c g     F .text	00000070 _ZN20Alf_SharedMemoryComm7TryLockEPv
00027e50 g     F .text	00000058 .hidden __umodsi3
000316a4 g     F .text	00000068 epcs_read_electronic_signature
00039018 g       *ABS*	00000000 end
0002fa1c g     F .text	000000b4 altera_avalon_jtag_uart_init
00026034 g     F .text	00000020 _ZN5Drive13GetBlock_RearEv
0002670c g     F .text	0000030c _ZN7mpu605013ReadGyroscopeERNS_13GyroscopeDataE
00032968 g       *ABS*	00000000 __CTOR_LIST__
00040000 g       *ABS*	00000000 __alt_stack_pointer
00031194 g     F .text	00000074 alt_avalon_timer_sc_init
0002b648 g     F .text	00000064 .hidden __clzsi2
000300f4 g     F .text	00000224 altera_avalon_jtag_uart_write
00027b64  w    F .text	0000004c _ZN20Garifield_RingBufferIN20Alf_SharedMemoryComm9mailbox_sELm12EEC2Ev
0002bde8 g     F .text	00000004 __sfp_lock_acquire
0002cc78 g     F .text	000000e4 memchr
00023e90 g     F .text	000000cc _ZN20Alf_SharedMemoryComm20ReadInterruptHandlerEv
00022eb0 g     F .text	000000dc xTaskCheckForTimeOut
0002dc84 g     F .text	00000310 _free_r
00038dec g     O .bss	00000020 global_drive_info
000327b4 g     F .text	00000180 __call_exitprocs
00023214 g     F .text	000000b0 ulTaskNotifyTake
00034c64 g     O .rwdata	00000004 __malloc_sbrk_base
00020254 g     F .text	00000038 _start
00034d30 g     O .bss	00000004 _alt_tick_rate
00022720 g     F .text	0000002c vTaskSuspendAll
000273e4 g     F .text	00000134 _Z7readMPUPv
000228cc g     F .text	0000002c xTaskGetTickCountFromISR
00030f1c g     F .text	000001fc alt_avalon_spi_command
00034d34 g     O .bss	00000004 _alt_nticks
0002e7d4 g     F .text	000000fc read
0002ec28 g     F .text	000000b4 alt_sys_init
00028cf4 g     F .text	00000124 .hidden __floatsisf
00020cd0 g     F .text	00000098 uxListRemove
0003269c g     F .text	00000118 __register_exitproc
000250f0 g     F .text	000000fc _ZN7Display9drawPixelEsst
00030e04 g     F .text	00000054 altera_avalon_mutex_unlock
0002fd80 g     F .text	00000068 altera_avalon_jtag_uart_close
00038ef0 g     O .bss	00000028 __malloc_current_mallinfo
00023860 g     F .text	00000078 xTaskNotifyStateClear
0002256c g     F .text	000000cc vTaskResume
00022b1c g     F .text	000000d8 vTaskSwitchContext
00031208 g     F .text	0000005c epcs_read_status_register
00026c04 g     F .text	00000038 _ZN16UltraSonicDeviceC2E17UltraSonicAddress
0002f8b8 g     F .text	00000060 altera_avalon_jtag_uart_read_fd
00032530 g     F .text	000000a4 alt_get_fd
0002d760 g     F .text	00000054 _close_r
000232c4 g     F .text	000000f4 xTaskNotifyWait
0002596c g     F .text	0000007c _ZN7Display10fillScreenEt
0003170c g     F .text	00000080 epcs_read_device_id
00032620 g     F .text	0000007c memcmp
0002f978 g     F .text	00000050 altera_avalon_jtag_uart_close_fd
0002ecdc g     F .text	00000034 PWMGen_Set_DutyCycle
00039018 g       *ABS*	00000000 __alt_stack_base
0002f9c8 g     F .text	00000054 altera_avalon_jtag_uart_ioctl_fd
000a0000 g       *ABS*	00000000 __alt_mem_epcs_flash_controller_0
0002d60c g     F .text	00000154 __swsetup_r
000223f8 g     F .text	000000e0 vTaskSuspend
000297b4 g     F .text	000008e8 .hidden __divdf3
0002bca8 g     F .text	00000118 __sfp
000250a8 g     F .text	00000048 _ZN7Display9writedataEh
0002476c  w    F .text	000000bc _ZN20Alf_SharedMemoryComm12HardwareReadI14Alf_Drive_InfoEE15ALF_ERROR_CODESRT_RKmS6_
000228f8 g     F .text	00000020 uxTaskGetNumberOfTasks
00026a18 g     F .text	0000016c _ZN7mpu605015ReadTemperatureERf
000334b8 g     O .rwdata	00000408 __malloc_av_
0002bdf4 g     F .text	00000004 __sinit_lock_release
0002a178 g     F .text	00000718 .hidden __muldf3
0002d470 g     F .text	00000054 __sread
00032428 g     F .text	00000108 alt_find_file
00031c1c g     F .text	000000a4 alt_dev_llist_insert
0002e750 g     F .text	00000024 __malloc_lock
0002e934 g     F .text	000000b0 sbrk
00023c30 g     F .text	00000038 _ZN20Alf_SharedMemoryComm22EnableMailboxInterruptEv
0002dad4 g     F .text	0000005c _fflush_r
00020850 g     F .text	00000074 vEventGroupDelete
00034c9c g     O .rwdata	00000008 alt_flash_dev_list
000233b8 g     F .text	000001a4 xTaskGenericNotify
00024b9c g     F .text	00000064 _ZN7DisplayC1Ess
00034cac g       *ABS*	00000000 __bss_start
00024aa4 g     F .text	000000f8 _Z8itochptriPc
0002b7f4 g     F .text	00000128 memset
00024678  w    F .text	00000028 _ZN20Garifield_RingBufferIN20Alf_SharedMemoryComm9mailbox_sELm12EE5emptyEv
0002724c g     F .text	00000198 main
00034d2c g     O .bss	00000004 alt_envp
00034d10 g     O .bss	00000004 __malloc_max_total_mem
0002f918 g     F .text	00000060 altera_avalon_jtag_uart_write_fd
00020bf8 g     F .text	000000d8 vListInsert
0002d5a4 g     F .text	00000008 __sclose
00040000 g       *ABS*	00000000 __alt_heap_limit
0002d8a4 g     F .text	00000014 fclose
0002b4a0 g     F .text	000001a8 .hidden __truncdfsf2
00030d80 g     F .text	00000044 altera_avalon_mutex_lock
0002c46c g     F .text	0000080c _malloc_r
00034c80 g     O .rwdata	00000004 alt_errno
000222ac g     F .text	000000f0 vTaskDelayUntil
0002c2e4 g     F .text	000000c4 _fwalk
000218b0 g     F .text	000000e4 xQueueReceiveFromISR
00027cf4 g     F .text	00000084 .hidden __divsi3
00021220 g     F .text	000000a0 xQueueGenericCreate
0002db60 g     F .text	00000124 _malloc_trim_r
00025f10 g     F .text	00000044 _ZN5Drive11SetMaxSpeedEh
0003296c g       *ABS*	00000000 __CTOR_END__
000283a4 g     F .text	000003fc .hidden __mulsf3
0003198c g     F .text	0000007c I2C_read
00027bb0  w    F .text	00000070 _ZN20Alf_SharedMemoryCommC2Ev
00023da0 g     F .text	00000054 _ZN20Alf_SharedMemoryComm5WriteERK14Alf_Drive_Info
00034d00 g     O .bss	00000004 writeTask
00025f54 g     F .text	00000030 _ZN5Drive14setBlock_FrontEb
0002f328 g     F .text	00000260 alt_epcs_flash_write
00025fb4 g     F .text	00000020 _ZN5Drive20GetCurrent_directionEv
00034c48 g     O .rwdata	00000001 _ZN8Steering15max_angle_deltaE
0003296c g       *ABS*	00000000 __DTOR_LIST__
0002355c g     F .text	000001e0 xTaskGenericNotifyFromISR
0002ed3c g     F .text	00000038 ROT_ENC_SetNewStatus
0002ebf0 g     F .text	00000038 alt_irq_init
00022d9c g     F .text	000000d8 xTaskRemoveFromUnorderedEventList
0002e8d0 g     F .text	00000064 alt_release_fd
0002274c g     F .text	00000158 xTaskResumeAll
00021a50 g     F .text	00000054 uxQueueSpacesAvailable
00032eae g     O .rodata	00000100 .hidden __clz_tab
00022638 g     F .text	000000a0 vTaskStartScheduler
00024c00 g     F .text	00000460 _ZN7Display4initEt
000251ec g     F .text	0000031c _ZN7Display8drawCharEsshtth
000325d4 g     F .text	00000014 atexit
000282e8 g     F .text	000000bc .hidden __gesf2
0002d5ac g     F .text	00000060 _write_r
00021ee8 g     F .text	00000048 xQueueIsQueueFullFromISR
000279f8 g     F .text	0000004c _Z12setDriveInfoPv
00034c60 g     O .rwdata	00000004 _impure_ptr
00034d24 g     O .bss	00000004 alt_argc
0002d8b8 g     F .text	0000021c __sflush_r
00031d20 g     F .text	00000060 _do_dtors
00024950 g     F .text	00000050 _Z14spi_write_byteh
0002be10 g     F .text	00000018 __fp_unlock_all
00022f8c g     F .text	00000028 vTaskMissedYield
00034c6c g     O .rwdata	00000008 alt_fs_list
00026014 g     F .text	00000020 _ZN5Drive14GetBlock_FrontEv
00021a10 g     F .text	00000040 uxQueueMessagesWaiting
000216bc g     F .text	000001f4 xQueueGenericReceive
00022958 g     F .text	000001c4 xTaskIncrementTick
0002ed74 g     F .text	00000048 ROT_ENC_ClearCounter
00031844 g     F .text	000000b4 I2C_init
000313d4 g     F .text	000000f4 epcs_read_buffer
0002edf0 g     F .text	00000054 alt_epcs_flash_init
00024240  w    F .text	00000194 _ZN20Alf_SharedMemoryComm13HardwareWriteI14Alf_Drive_InfoEE15ALF_ERROR_CODESRKT_RKmS7_
00026f28 g     F .text	00000118 _ZNK16UltraSonicDevice15readMeasurementEPhh
0002110c g     F .text	00000114 xQueueGenericReset
00034cac g       *ABS*	00000000 _edata
00026d6c g     F .text	00000080 _ZNK16UltraSonicDevice18writeRANGERegisterEh
00039018 g       *ABS*	00000000 _end
00031e10 g     F .text	00000068 alt_flash_open_dev
0002fde8 g     F .text	000000f0 altera_avalon_jtag_uart_ioctl
00021f30 g     F .text	000000e8 xTaskCreate
00023d4c g     F .text	00000054 _ZN20Alf_SharedMemoryComm5WriteERK17Alf_Drive_Command
00020a8c g     F .text	00000024 vPortInitialiseBlocks
00025e38 g     F .text	000000d8 _ZN5Drive13SetDriveSpeedEhh
0003178c g     F .text	0000005c epcs_enter_4_bytes_mode
00026c3c g     F .text	000000b0 _ZNK16UltraSonicDevice16writeCMDRegisterE18UltraSonicCommandsb
00025f84 g     F .text	00000030 _ZN5Drive13SetBlock_RearEb
00034c8c g     O .rwdata	00000008 alt_mailbox_simple_list
0002d4cc g     F .text	0000007c __swrite
00034c68 g     O .rwdata	00000004 __malloc_trim_threshold
000325e8 g     F .text	00000038 exit
0002c3a8 g     F .text	000000c4 _fwalk_reent
00028e18 g     F .text	000000f0 .hidden __floatunsisf
00031e78 g     F .text	00000054 alt_flash_close_dev
00026210 g     F .text	000001f0 _ZN7mpu605011InitMPU6050E21AccelerometerSettings17GyroscopeSettings
00027d78 g     F .text	00000074 .hidden __modsi3
0002239c g     F .text	0000005c vTaskDelay
00040000 g       *ABS*	00000000 __alt_data_end
0002bdec g     F .text	00000004 __sfp_lock_release
00034cfc g     O .bss	00000004 _ZN8Steering11val_per_degE
00034c47 g     O .rwdata	00000001 _ZN5Drive17max_speed_percentE
00060000 g       *ABS*	00000000 __alt_mem_shared_memory_master_hps_0
00027c20 g     F .text	00000060 .hidden __fixunssfsi
00030680 g     F .text	000001c4 altera_avalon_mailbox_open
00032934 g     F .text	00000034 _exit
00031ab4 g     F .text	0000012c alt_alarm_start
0002dff4 g     F .text	000001bc __smakebuf_r
000243d4  w    F .text	00000194 _ZN20Alf_SharedMemoryComm13HardwareWriteImEE15ALF_ERROR_CODESRKT_RKmS6_
00023170 g     F .text	00000060 vTaskExitCritical
0002b9f0 g     F .text	00000098 strlen
000314c8 g     F .text	00000054 epcs_write_enable
00020d94 g     F .text	000000e0 pxPortInitialiseStack
0003210c g     F .text	00000154 open
0002a09c g     F .text	000000dc .hidden __gedf2
000261c8 g     F .text	00000048 _ZN7mpu6050C2E17MPU6050_Addresses
000249f4 g     F .text	000000b0 _Z10reversestrPc
00022e74 g     F .text	0000003c vTaskSetTimeOutState
00034c46 g     O .rwdata	00000001 _ZN5Drive11mot_dir_pinE
00034c84 g     O .rwdata	00000004 alt_priority_mask
00026400 g     F .text	0000030c _ZN7mpu605017ReadAccelerometerERNS_17AccelerometerDataE
00026dec g     F .text	0000013c _ZNK16UltraSonicDevice12readRegisterE22UltraSonicRegisterReadRt
00030d5c g     F .text	00000024 altera_avalon_mutex_close
00021aa4 g     F .text	00000030 uxQueueMessagesWaitingFromISR
00021e50 g     F .text	00000040 xQueueIsQueueEmptyFromISR
0002a890 g     F .text	000008fc .hidden __subdf3
0002f820 g     F .text	00000098 alt_epcs_flash_read
00034ca4 g     O .rwdata	00000008 alt_alarm_list
00031cc0 g     F .text	00000060 _do_ctors
00027040 g     F .text	00000154 _ZN16UltraSonicDevice13changeAddressE17UltraSonicAddress
000231d0 g     F .text	00000044 uxTaskResetEventItemValue
0002e2fc g     F .text	000000d0 close
00023df4 g     F .text	00000048 _ZN20Alf_SharedMemoryComm5WriteERm
00027720 g     F .text	00000118 _Z10readRotaryPv
0002373c g     F .text	00000124 vTaskNotifyGiveFromISR
00034cf9 g     O .bss	00000001 _ZN5Drive17current_directionE
00020900 g     F .text	0000003c vEventGroupClearBitsCallback
00031a08 g     F .text	000000ac I2C_write
00023e3c g     F .text	00000054 _ZN20Alf_SharedMemoryComm15ResetWriteMutexEv
000215e0 g     F .text	000000dc xQueueGiveFromISR
00034cec g     O .bss	00000004 global_drive_command
0002bdf0 g     F .text	00000004 __sinit_lock_acquire
00031588 g     F .text	0000011c epcs_write_buffer
00023cfc g     F .text	00000050 _ZN20Alf_SharedMemoryComm21WriteAndCommitMailboxEPKvmRKm



Disassembly of section .exceptions:

00020020 <save_context>:
# Entry point for exceptions.
.section .exceptions.entry, "xa"		

# Save the entire context of a task.
save_context:
	addi	ea, ea, -4			# Point to the next instruction.
   20020:	ef7fff04 	addi	ea,ea,-4
	addi	sp,	sp, -116		# Create space on the stack.
   20024:	deffe304 	addi	sp,sp,-116
	stw		ra, 0(sp)
   20028:	dfc00015 	stw	ra,0(sp)
								# Leave a gap for muldiv 0
	stw		at, 8(sp)		 
   2002c:	d8400215 	stw	at,8(sp)
	stw		r2, 12(sp)
   20030:	d8800315 	stw	r2,12(sp)
	stw		r3, 16(sp)
   20034:	d8c00415 	stw	r3,16(sp)
	stw		r4, 20(sp)
   20038:	d9000515 	stw	r4,20(sp)
	stw		r5, 24(sp) 
   2003c:	d9400615 	stw	r5,24(sp)
	stw		r6, 28(sp) 
   20040:	d9800715 	stw	r6,28(sp)
	stw		r7, 32(sp) 
   20044:	d9c00815 	stw	r7,32(sp)
	stw		r8, 36(sp) 
   20048:	da000915 	stw	r8,36(sp)
	stw		r9, 40(sp) 
   2004c:	da400a15 	stw	r9,40(sp)
	stw		r10, 44(sp)
   20050:	da800b15 	stw	r10,44(sp)
	stw		r11, 48(sp)
   20054:	dac00c15 	stw	r11,48(sp)
	stw		r12, 52(sp)
   20058:	db000d15 	stw	r12,52(sp)
	stw		r13, 56(sp)
   2005c:	db400e15 	stw	r13,56(sp)
	stw		r14, 60(sp)
   20060:	db800f15 	stw	r14,60(sp)
	stw		r15, 64(sp)
   20064:	dbc01015 	stw	r15,64(sp)
	rdctl	r5, estatus 		# Save the eStatus
   20068:	000b307a 	rdctl	r5,estatus
	stw		r5, 68(sp)
   2006c:	d9401115 	stw	r5,68(sp)
	stw		ea, 72(sp)			# Save the PC
   20070:	df401215 	stw	ea,72(sp)
	stw		r16, 76(sp)			# Save the remaining registers
   20074:	dc001315 	stw	r16,76(sp)
	stw		r17, 80(sp)
   20078:	dc401415 	stw	r17,80(sp)
	stw		r18, 84(sp)
   2007c:	dc801515 	stw	r18,84(sp)
	stw		r19, 88(sp)
   20080:	dcc01615 	stw	r19,88(sp)
	stw		r20, 92(sp)
   20084:	dd001715 	stw	r20,92(sp)
	stw		r21, 96(sp)
   20088:	dd401815 	stw	r21,96(sp)
	stw		r22, 100(sp)
   2008c:	dd801915 	stw	r22,100(sp)
	stw		r23, 104(sp)
   20090:	ddc01a15 	stw	r23,104(sp)
	stw		gp, 108(sp)
   20094:	de801b15 	stw	gp,108(sp)
	stw		fp, 112(sp)
   20098:	df001c15 	stw	fp,112(sp)

0002009c <save_sp_to_pxCurrentTCB>:
   2009c:	060000f4 	movhi	et,3

save_sp_to_pxCurrentTCB:
	movia	et, pxCurrentTCB	# Load the address of the pxCurrentTCB pointer
   200a0:	c6132d04 	addi	et,et,19636
	ldw		et, (et)			# Load the value of the pxCurrentTCB pointer
   200a4:	c6000017 	ldw	et,0(et)
	stw		sp, (et)			# Store the stack pointer into the top of the TCB
   200a8:	c6c00015 	stw	sp,0(et)

000200ac <hw_irq_test>:
hw_irq_test:
	/*
     * Test to see if the exception was a software exception or caused 
     * by an external interrupt, and vector accordingly.
     */
    rdctl	r4, ipending		# Load the Pending Interrupts indication
   200ac:	0009313a 	rdctl	r4,ipending
	rdctl	r5, estatus 		# Load the eStatus (enabled interrupts).
   200b0:	000b307a 	rdctl	r5,estatus
    andi	r2, r5, 1			# Are interrupts enabled globally.
   200b4:	2880004c 	andi	r2,r5,1
    beq		r2, zero, soft_exceptions		# Interrupts are not enabled.
   200b8:	10002526 	beq	r2,zero,20150 <soft_exceptions>
    beq		r4, zero, soft_exceptions		# There are no interrupts triggered.
   200bc:	20002426 	beq	r4,zero,20150 <soft_exceptions>

000200c0 <hw_irq_handler>:

	.section .exceptions.irqhandler, "xa"
hw_irq_handler:
	call	alt_irq_handler					# Call the alt_irq_handler to deliver to the registered interrupt handler.
   200c0:	002017c0 	call	2017c <alt_irq_handler>

000200c4 <restore_sp_from_pxCurrentTCB>:
   200c4:	060000f4 	movhi	et,3

    .section .exceptions.irqreturn, "xa"
restore_sp_from_pxCurrentTCB:
	movia	et, pxCurrentTCB		# Load the address of the pxCurrentTCB pointer
   200c8:	c6132d04 	addi	et,et,19636
	ldw		et, (et)				# Load the value of the pxCurrentTCB pointer
   200cc:	c6000017 	ldw	et,0(et)
	ldw		sp, (et)				# Load the stack pointer with the top value of the TCB
   200d0:	c6c00017 	ldw	sp,0(et)

000200d4 <restore_context>:

restore_context:
	ldw		ra, 0(sp)		# Restore the registers.
   200d4:	dfc00017 	ldw	ra,0(sp)
							# Leave a gap for muldiv 0.
	ldw		at, 8(sp)
   200d8:	d8400217 	ldw	at,8(sp)
	ldw		r2, 12(sp)
   200dc:	d8800317 	ldw	r2,12(sp)
	ldw		r3, 16(sp)
   200e0:	d8c00417 	ldw	r3,16(sp)
	ldw		r4, 20(sp)
   200e4:	d9000517 	ldw	r4,20(sp)
	ldw		r5, 24(sp) 
   200e8:	d9400617 	ldw	r5,24(sp)
	ldw		r6, 28(sp) 
   200ec:	d9800717 	ldw	r6,28(sp)
	ldw		r7, 32(sp) 
   200f0:	d9c00817 	ldw	r7,32(sp)
	ldw		r8, 36(sp) 
   200f4:	da000917 	ldw	r8,36(sp)
	ldw		r9, 40(sp) 
   200f8:	da400a17 	ldw	r9,40(sp)
	ldw		r10, 44(sp)
   200fc:	da800b17 	ldw	r10,44(sp)
	ldw		r11, 48(sp)
   20100:	dac00c17 	ldw	r11,48(sp)
	ldw		r12, 52(sp)
   20104:	db000d17 	ldw	r12,52(sp)
	ldw		r13, 56(sp)
   20108:	db400e17 	ldw	r13,56(sp)
	ldw		r14, 60(sp)
   2010c:	db800f17 	ldw	r14,60(sp)
	ldw		r15, 64(sp)
   20110:	dbc01017 	ldw	r15,64(sp)
	ldw		et, 68(sp)		# Load the eStatus
   20114:	de001117 	ldw	et,68(sp)
	wrctl	estatus, et 	# Write the eStatus
   20118:	c001707a 	wrctl	estatus,et
	ldw		ea, 72(sp)		# Load the Program Counter
   2011c:	df401217 	ldw	ea,72(sp)
	ldw		r16, 76(sp)
   20120:	dc001317 	ldw	r16,76(sp)
	ldw		r17, 80(sp)
   20124:	dc401417 	ldw	r17,80(sp)
	ldw		r18, 84(sp)
   20128:	dc801517 	ldw	r18,84(sp)
	ldw		r19, 88(sp)
   2012c:	dcc01617 	ldw	r19,88(sp)
	ldw		r20, 92(sp)
   20130:	dd001717 	ldw	r20,92(sp)
	ldw		r21, 96(sp)
   20134:	dd401817 	ldw	r21,96(sp)
	ldw		r22, 100(sp)
   20138:	dd801917 	ldw	r22,100(sp)
	ldw		r23, 104(sp)
   2013c:	ddc01a17 	ldw	r23,104(sp)
	ldw		gp, 108(sp)
   20140:	de801b17 	ldw	gp,108(sp)
	ldw		fp, 112(sp)
   20144:	df001c17 	ldw	fp,112(sp)
	addi	sp,	sp, 116		# Release stack space
   20148:	dec01d04 	addi	sp,sp,116

    eret					# Return to address ea, loading eStatus into Status.
   2014c:	ef80083a 	eret

00020150 <soft_exceptions>:
   
	.section .exceptions.soft, "xa"
soft_exceptions:
	ldw		et, 0(ea)				# Load the instruction where the interrupt occured.
   20150:	ee000017 	ldw	et,0(ea)
	movhi	at, %hi(0x003B683A)		# Load the registers with the trap instruction code
   20154:	00400ef4 	movhi	at,59
	ori		at, at, %lo(0x003B683A)
   20158:	085a0e94 	ori	at,at,26682
   	cmpne	et, et, at				# Compare the trap instruction code to the last excuted instruction
   2015c:	c070c03a 	cmpne	et,et,at
  	beq		et, r0, call_scheduler	# its a trap so switchcontext
   20160:	c0000226 	beq	et,zero,2016c <call_scheduler>
  	break							# This is an un-implemented instruction or muldiv problem.
   20164:	003da03a 	break	0
  	br		restore_context			# its something else
   20168:	003fda06 	br	200d4 <__reset+0xfff800d4>

0002016c <call_scheduler>:

call_scheduler:
	addi	ea, ea, 4						# A trap was called, increment the program counter so it is not called again.
   2016c:	ef400104 	addi	ea,ea,4
	stw		ea, 72(sp)						# Save the new program counter to the context.
   20170:	df401215 	stw	ea,72(sp)
	call	vTaskSwitchContext				# Pick the next context.
   20174:	0022b1c0 	call	22b1c <vTaskSwitchContext>
	br		restore_sp_from_pxCurrentTCB	# Switch in the task context and restore. 
   20178:	003fd206 	br	200c4 <__reset+0xfff800c4>

0002017c <alt_irq_handler>:
 * instruction is present if the macro ALT_CI_INTERRUPT_VECTOR defined.
 */

void alt_irq_handler (void) __attribute__ ((section (".exceptions")));
void alt_irq_handler (void)
{
   2017c:	defff904 	addi	sp,sp,-28
   20180:	dfc00615 	stw	ra,24(sp)
   20184:	df000515 	stw	fp,20(sp)
   20188:	df000504 	addi	fp,sp,20
  
  /*
   * Notify the operating system that we are at interrupt level.
   */ 
  
  ALT_OS_INT_ENTER();
   2018c:	0001883a 	nop
#ifndef NIOS2_EIC_PRESENT
static ALT_INLINE alt_u32 ALT_ALWAYS_INLINE alt_irq_pending (void)
{
  alt_u32 active;

  NIOS2_READ_IPENDING (active);
   20190:	0005313a 	rdctl	r2,ipending
   20194:	e0bffe15 	stw	r2,-8(fp)

  return active;
   20198:	e0bffe17 	ldw	r2,-8(fp)
   * Consider the case where the high priority interupt is asserted during
   * the interrupt entry sequence for a lower priority interrupt to see why
   * this is the case.
   */

  active = alt_irq_pending ();
   2019c:	e0bffb15 	stw	r2,-20(fp)

  do
  {
    i = 0;
   201a0:	e03ffd15 	stw	zero,-12(fp)
    mask = 1;
   201a4:	00800044 	movi	r2,1
   201a8:	e0bffc15 	stw	r2,-16(fp)
     * called to clear the interrupt condition.
     */

    do
    {
      if (active & mask)
   201ac:	e0fffb17 	ldw	r3,-20(fp)
   201b0:	e0bffc17 	ldw	r2,-16(fp)
   201b4:	1884703a 	and	r2,r3,r2
   201b8:	10001526 	beq	r2,zero,20210 <alt_irq_handler+0x94>
      { 
#ifdef ALT_ENHANCED_INTERRUPT_API_PRESENT
        alt_irq[i].handler(alt_irq[i].context); 
#else
        alt_irq[i].handler(alt_irq[i].context, i); 
   201bc:	00800134 	movhi	r2,4
   201c0:	10a3c604 	addi	r2,r2,-28904
   201c4:	e0fffd17 	ldw	r3,-12(fp)
   201c8:	180690fa 	slli	r3,r3,3
   201cc:	10c5883a 	add	r2,r2,r3
   201d0:	10c00017 	ldw	r3,0(r2)
   201d4:	00800134 	movhi	r2,4
   201d8:	10a3c604 	addi	r2,r2,-28904
   201dc:	e13ffd17 	ldw	r4,-12(fp)
   201e0:	200890fa 	slli	r4,r4,3
   201e4:	1105883a 	add	r2,r2,r4
   201e8:	10800104 	addi	r2,r2,4
   201ec:	10800017 	ldw	r2,0(r2)
   201f0:	e17ffd17 	ldw	r5,-12(fp)
   201f4:	1009883a 	mov	r4,r2
   201f8:	183ee83a 	callr	r3
#endif
        break;
   201fc:	0001883a 	nop
#ifndef NIOS2_EIC_PRESENT
static ALT_INLINE alt_u32 ALT_ALWAYS_INLINE alt_irq_pending (void)
{
  alt_u32 active;

  NIOS2_READ_IPENDING (active);
   20200:	0005313a 	rdctl	r2,ipending
   20204:	e0bfff15 	stw	r2,-4(fp)

  return active;
   20208:	e0bfff17 	ldw	r2,-4(fp)
   2020c:	00000706 	br	2022c <alt_irq_handler+0xb0>
      }
      mask <<= 1;
   20210:	e0bffc17 	ldw	r2,-16(fp)
   20214:	1085883a 	add	r2,r2,r2
   20218:	e0bffc15 	stw	r2,-16(fp)
      i++;
   2021c:	e0bffd17 	ldw	r2,-12(fp)
   20220:	10800044 	addi	r2,r2,1
   20224:	e0bffd15 	stw	r2,-12(fp)

    } while (1);
   20228:	003fe006 	br	201ac <__reset+0xfff801ac>

    active = alt_irq_pending ();
   2022c:	e0bffb15 	stw	r2,-20(fp)
    
  } while (active);
   20230:	e0bffb17 	ldw	r2,-20(fp)
   20234:	103fda1e 	bne	r2,zero,201a0 <__reset+0xfff801a0>

  /*
   * Notify the operating system that interrupt processing is complete.
   */ 

  ALT_OS_INT_EXIT();
   20238:	0001883a 	nop
}
   2023c:	0001883a 	nop
   20240:	e037883a 	mov	sp,fp
   20244:	dfc00117 	ldw	ra,4(sp)
   20248:	df000017 	ldw	fp,0(sp)
   2024c:	dec00204 	addi	sp,sp,8
   20250:	f800283a 	ret

Disassembly of section .text:

00020254 <_start>:

    /*
     * Now that the caches are initialized, set up the stack pointer and global pointer.
     * The values provided by the linker are assumed to be correctly aligned.
     */
    movhi sp, %hi(__alt_stack_pointer)
   20254:	06c00134 	movhi	sp,4
    ori sp, sp, %lo(__alt_stack_pointer)
   20258:	dec00014 	ori	sp,sp,0
    movhi gp, %hi(_gp)
   2025c:	068000f4 	movhi	gp,3
    ori gp, gp, %lo(_gp)
   20260:	d6b31114 	ori	gp,gp,52292
 */
#ifndef ALT_SIM_OPTIMIZE
    /* Log that the BSS is about to be cleared. */
    ALT_LOG_PUTS(alt_log_msg_bss)

    movhi r2, %hi(__bss_start)
   20264:	008000f4 	movhi	r2,3
    ori r2, r2, %lo(__bss_start)
   20268:	10932b14 	ori	r2,r2,19628

    movhi r3, %hi(__bss_end)
   2026c:	00c000f4 	movhi	r3,3
    ori r3, r3, %lo(__bss_end)
   20270:	18e40614 	ori	r3,r3,36888

    beq r2, r3, 1f
   20274:	10c00326 	beq	r2,r3,20284 <_start+0x30>

0:
    stw zero, (r2)
   20278:	10000015 	stw	zero,0(r2)
    addi r2, r2, 4
   2027c:	10800104 	addi	r2,r2,4
    bltu r2, r3, 0b
   20280:	10fffd36 	bltu	r2,r3,20278 <__reset+0xfff80278>

    /* Log that alt_main is about to be called. */
    ALT_LOG_PUTS(alt_log_msg_alt_main)

    /* Call the C entry point. It should never return. */
    call alt_main
   20284:	002e6d40 	call	2e6d4 <alt_main>

00020288 <alt_after_alt_main>:

    /* Wait in infinite loop in case alt_main does return. */
alt_after_alt_main:
    br alt_after_alt_main
   20288:	003fff06 	br	20288 <__reset+0xfff80288>

0002028c <main2>:
 */

#include <stdio.h>

int main2()
{
   2028c:	defffe04 	addi	sp,sp,-8
   20290:	dfc00115 	stw	ra,4(sp)
   20294:	df000015 	stw	fp,0(sp)
   20298:	d839883a 	mov	fp,sp
  printf("Hello from Nios II!\n");
   2029c:	010000f4 	movhi	r4,3
   202a0:	210a5b04 	addi	r4,r4,10604
   202a4:	002b9dc0 	call	2b9dc <puts>

  return 0;
   202a8:	0005883a 	mov	r2,zero
}
   202ac:	e037883a 	mov	sp,fp
   202b0:	dfc00117 	ldw	ra,4(sp)
   202b4:	df000017 	ldw	fp,0(sp)
   202b8:	dec00204 	addi	sp,sp,8
   202bc:	f800283a 	ret

000202c0 <xEventGroupCreate>:
/*-----------------------------------------------------------*/

#if( configSUPPORT_DYNAMIC_ALLOCATION == 1 )

	EventGroupHandle_t xEventGroupCreate( void )
	{
   202c0:	defffd04 	addi	sp,sp,-12
   202c4:	dfc00215 	stw	ra,8(sp)
   202c8:	df000115 	stw	fp,4(sp)
   202cc:	df000104 	addi	fp,sp,4
	EventGroup_t *pxEventBits;

		/* Allocate the event group. */
		pxEventBits = ( EventGroup_t * ) pvPortMalloc( sizeof( EventGroup_t ) );
   202d0:	01000604 	movi	r4,24
   202d4:	00209ac0 	call	209ac <pvPortMalloc>
   202d8:	e0bfff15 	stw	r2,-4(fp)

		if( pxEventBits != NULL )
   202dc:	e0bfff17 	ldw	r2,-4(fp)
   202e0:	10000626 	beq	r2,zero,202fc <xEventGroupCreate+0x3c>
		{
			pxEventBits->uxEventBits = 0;
   202e4:	e0bfff17 	ldw	r2,-4(fp)
   202e8:	10000015 	stw	zero,0(r2)
			vListInitialise( &( pxEventBits->xTasksWaitingForBits ) );
   202ec:	e0bfff17 	ldw	r2,-4(fp)
   202f0:	10800104 	addi	r2,r2,4
   202f4:	1009883a 	mov	r4,r2
   202f8:	0020ad80 	call	20ad8 <vListInitialise>
		else
		{
			traceEVENT_GROUP_CREATE_FAILED();
		}

		return ( EventGroupHandle_t ) pxEventBits;
   202fc:	e0bfff17 	ldw	r2,-4(fp)
	}
   20300:	e037883a 	mov	sp,fp
   20304:	dfc00117 	ldw	ra,4(sp)
   20308:	df000017 	ldw	fp,0(sp)
   2030c:	dec00204 	addi	sp,sp,8
   20310:	f800283a 	ret

00020314 <xEventGroupSync>:

#endif /* configSUPPORT_DYNAMIC_ALLOCATION */
/*-----------------------------------------------------------*/

EventBits_t xEventGroupSync( EventGroupHandle_t xEventGroup, const EventBits_t uxBitsToSet, const EventBits_t uxBitsToWaitFor, TickType_t xTicksToWait )
{
   20314:	defff504 	addi	sp,sp,-44
   20318:	dfc00a15 	stw	ra,40(sp)
   2031c:	df000915 	stw	fp,36(sp)
   20320:	df000904 	addi	fp,sp,36
   20324:	e13ffc15 	stw	r4,-16(fp)
   20328:	e17ffd15 	stw	r5,-12(fp)
   2032c:	e1bffe15 	stw	r6,-8(fp)
   20330:	e1ffff15 	stw	r7,-4(fp)
EventBits_t uxOriginalBitValue, uxReturn;
EventGroup_t *pxEventBits = ( EventGroup_t * ) xEventGroup;
   20334:	e0bffc17 	ldw	r2,-16(fp)
   20338:	e0bff815 	stw	r2,-32(fp)
BaseType_t xAlreadyYielded;
BaseType_t xTimeoutOccurred = pdFALSE;
   2033c:	e03ff915 	stw	zero,-28(fp)
	{
		configASSERT( !( ( xTaskGetSchedulerState() == taskSCHEDULER_SUSPENDED ) && ( xTicksToWait != 0 ) ) );
	}
	#endif

	vTaskSuspendAll();
   20340:	00227200 	call	22720 <vTaskSuspendAll>
	{
		uxOriginalBitValue = pxEventBits->uxEventBits;
   20344:	e0bff817 	ldw	r2,-32(fp)
   20348:	10800017 	ldw	r2,0(r2)
   2034c:	e0bffa15 	stw	r2,-24(fp)

		( void ) xEventGroupSetBits( xEventGroup, uxBitsToSet );
   20350:	e17ffd17 	ldw	r5,-12(fp)
   20354:	e13ffc17 	ldw	r4,-16(fp)
   20358:	00206d00 	call	206d0 <xEventGroupSetBits>

		if( ( ( uxOriginalBitValue | uxBitsToSet ) & uxBitsToWaitFor ) == uxBitsToWaitFor )
   2035c:	e0fffa17 	ldw	r3,-24(fp)
   20360:	e0bffd17 	ldw	r2,-12(fp)
   20364:	1886b03a 	or	r3,r3,r2
   20368:	e0bffe17 	ldw	r2,-8(fp)
   2036c:	1886703a 	and	r3,r3,r2
   20370:	e0bffe17 	ldw	r2,-8(fp)
   20374:	18800d1e 	bne	r3,r2,203ac <xEventGroupSync+0x98>
		{
			/* All the rendezvous bits are now set - no need to block. */
			uxReturn = ( uxOriginalBitValue | uxBitsToSet );
   20378:	e0fffa17 	ldw	r3,-24(fp)
   2037c:	e0bffd17 	ldw	r2,-12(fp)
   20380:	1884b03a 	or	r2,r3,r2
   20384:	e0bff715 	stw	r2,-36(fp)

			/* Rendezvous always clear the bits.  They will have been cleared
			already unless this is the only task in the rendezvous. */
			pxEventBits->uxEventBits &= ~uxBitsToWaitFor;
   20388:	e0bff817 	ldw	r2,-32(fp)
   2038c:	10c00017 	ldw	r3,0(r2)
   20390:	e0bffe17 	ldw	r2,-8(fp)
   20394:	0084303a 	nor	r2,zero,r2
   20398:	1886703a 	and	r3,r3,r2
   2039c:	e0bff817 	ldw	r2,-32(fp)
   203a0:	10c00015 	stw	r3,0(r2)

			xTicksToWait = 0;
   203a4:	e03fff15 	stw	zero,-4(fp)
   203a8:	00000f06 	br	203e8 <xEventGroupSync+0xd4>
		}
		else
		{
			if( xTicksToWait != ( TickType_t ) 0 )
   203ac:	e0bfff17 	ldw	r2,-4(fp)
   203b0:	10000a26 	beq	r2,zero,203dc <xEventGroupSync+0xc8>
				traceEVENT_GROUP_SYNC_BLOCK( xEventGroup, uxBitsToSet, uxBitsToWaitFor );

				/* Store the bits that the calling task is waiting for in the
				task's event list item so the kernel knows when a match is
				found.  Then enter the blocked state. */
				vTaskPlaceOnUnorderedEventList( &( pxEventBits->xTasksWaitingForBits ), ( uxBitsToWaitFor | eventCLEAR_EVENTS_ON_EXIT_BIT | eventWAIT_FOR_ALL_BITS ), xTicksToWait );
   203b4:	e0bff817 	ldw	r2,-32(fp)
   203b8:	10c00104 	addi	r3,r2,4
   203bc:	e0bffe17 	ldw	r2,-8(fp)
   203c0:	10814034 	orhi	r2,r2,1280
   203c4:	e1bfff17 	ldw	r6,-4(fp)
   203c8:	100b883a 	mov	r5,r2
   203cc:	1809883a 	mov	r4,r3
   203d0:	0022c440 	call	22c44 <vTaskPlaceOnUnorderedEventList>

				/* This assignment is obsolete as uxReturn will get set after
				the task unblocks, but some compilers mistakenly generate a
				warning about uxReturn being returned without being set if the
				assignment is omitted. */
				uxReturn = 0;
   203d4:	e03ff715 	stw	zero,-36(fp)
   203d8:	00000306 	br	203e8 <xEventGroupSync+0xd4>
			}
			else
			{
				/* The rendezvous bits were not set, but no block time was
				specified - just return the current event bit value. */
				uxReturn = pxEventBits->uxEventBits;
   203dc:	e0bff817 	ldw	r2,-32(fp)
   203e0:	10800017 	ldw	r2,0(r2)
   203e4:	e0bff715 	stw	r2,-36(fp)
			}
		}
	}
	xAlreadyYielded = xTaskResumeAll();
   203e8:	002274c0 	call	2274c <xTaskResumeAll>
   203ec:	e0bffb15 	stw	r2,-20(fp)

	if( xTicksToWait != ( TickType_t ) 0 )
   203f0:	e0bfff17 	ldw	r2,-4(fp)
   203f4:	10002026 	beq	r2,zero,20478 <xEventGroupSync+0x164>
	{
		if( xAlreadyYielded == pdFALSE )
   203f8:	e0bffb17 	ldw	r2,-20(fp)
   203fc:	1000011e 	bne	r2,zero,20404 <xEventGroupSync+0xf0>
		{
			portYIELD_WITHIN_API();
   20400:	003b683a 	trap	0

		/* The task blocked to wait for its required bits to be set - at this
		point either the required bits were set or the block time expired.  If
		the required bits were set they will have been stored in the task's
		event list item, and they should now be retrieved then cleared. */
		uxReturn = uxTaskResetEventItemValue();
   20404:	00231d00 	call	231d0 <uxTaskResetEventItemValue>
   20408:	e0bff715 	stw	r2,-36(fp)

		if( ( uxReturn & eventUNBLOCKED_DUE_TO_BIT_SET ) == ( EventBits_t ) 0 )
   2040c:	e0bff717 	ldw	r2,-36(fp)
   20410:	1080802c 	andhi	r2,r2,512
   20414:	1000131e 	bne	r2,zero,20464 <xEventGroupSync+0x150>
		{
			/* The task timed out, just return the current event bit value. */
			taskENTER_CRITICAL();
   20418:	002311c0 	call	2311c <vTaskEnterCritical>
			{
				uxReturn = pxEventBits->uxEventBits;
   2041c:	e0bff817 	ldw	r2,-32(fp)
   20420:	10800017 	ldw	r2,0(r2)
   20424:	e0bff715 	stw	r2,-36(fp)

				/* Although the task got here because it timed out before the
				bits it was waiting for were set, it is possible that since it
				unblocked another task has set the bits.  If this is the case
				then it needs to clear the bits before exiting. */
				if( ( uxReturn & uxBitsToWaitFor ) == uxBitsToWaitFor )
   20428:	e0fff717 	ldw	r3,-36(fp)
   2042c:	e0bffe17 	ldw	r2,-8(fp)
   20430:	1886703a 	and	r3,r3,r2
   20434:	e0bffe17 	ldw	r2,-8(fp)
   20438:	1880071e 	bne	r3,r2,20458 <xEventGroupSync+0x144>
				{
					pxEventBits->uxEventBits &= ~uxBitsToWaitFor;
   2043c:	e0bff817 	ldw	r2,-32(fp)
   20440:	10c00017 	ldw	r3,0(r2)
   20444:	e0bffe17 	ldw	r2,-8(fp)
   20448:	0084303a 	nor	r2,zero,r2
   2044c:	1886703a 	and	r3,r3,r2
   20450:	e0bff817 	ldw	r2,-32(fp)
   20454:	10c00015 	stw	r3,0(r2)
				else
				{
					mtCOVERAGE_TEST_MARKER();
				}
			}
			taskEXIT_CRITICAL();
   20458:	00231700 	call	23170 <vTaskExitCritical>

			xTimeoutOccurred = pdTRUE;
   2045c:	00800044 	movi	r2,1
   20460:	e0bff915 	stw	r2,-28(fp)
			/* The task unblocked because the bits were set. */
		}

		/* Control bits might be set as the task had blocked should not be
		returned. */
		uxReturn &= ~eventEVENT_BITS_CONTROL_BYTES;
   20464:	e0fff717 	ldw	r3,-36(fp)
   20468:	00804034 	movhi	r2,256
   2046c:	10bfffc4 	addi	r2,r2,-1
   20470:	1884703a 	and	r2,r3,r2
   20474:	e0bff715 	stw	r2,-36(fp)
	}

	traceEVENT_GROUP_SYNC_END( xEventGroup, uxBitsToSet, uxBitsToWaitFor, xTimeoutOccurred );

	return uxReturn;
   20478:	e0bff717 	ldw	r2,-36(fp)
}
   2047c:	e037883a 	mov	sp,fp
   20480:	dfc00117 	ldw	ra,4(sp)
   20484:	df000017 	ldw	fp,0(sp)
   20488:	dec00204 	addi	sp,sp,8
   2048c:	f800283a 	ret

00020490 <xEventGroupWaitBits>:
/*-----------------------------------------------------------*/

EventBits_t xEventGroupWaitBits( EventGroupHandle_t xEventGroup, const EventBits_t uxBitsToWaitFor, const BaseType_t xClearOnExit, const BaseType_t xWaitForAllBits, TickType_t xTicksToWait )
{
   20490:	defff304 	addi	sp,sp,-52
   20494:	dfc00c15 	stw	ra,48(sp)
   20498:	df000b15 	stw	fp,44(sp)
   2049c:	df000b04 	addi	fp,sp,44
   204a0:	e13ffc15 	stw	r4,-16(fp)
   204a4:	e17ffd15 	stw	r5,-12(fp)
   204a8:	e1bffe15 	stw	r6,-8(fp)
   204ac:	e1ffff15 	stw	r7,-4(fp)
EventGroup_t *pxEventBits = ( EventGroup_t * ) xEventGroup;
   204b0:	e0bffc17 	ldw	r2,-16(fp)
   204b4:	e0bff715 	stw	r2,-36(fp)
EventBits_t uxReturn, uxControlBits = 0;
   204b8:	e03ff615 	stw	zero,-40(fp)
BaseType_t xWaitConditionMet, xAlreadyYielded;
BaseType_t xTimeoutOccurred = pdFALSE;
   204bc:	e03ff815 	stw	zero,-32(fp)
	{
		configASSERT( !( ( xTaskGetSchedulerState() == taskSCHEDULER_SUSPENDED ) && ( xTicksToWait != 0 ) ) );
	}
	#endif

	vTaskSuspendAll();
   204c0:	00227200 	call	22720 <vTaskSuspendAll>
	{
		const EventBits_t uxCurrentEventBits = pxEventBits->uxEventBits;
   204c4:	e0bff717 	ldw	r2,-36(fp)
   204c8:	10800017 	ldw	r2,0(r2)
   204cc:	e0bff915 	stw	r2,-28(fp)

		/* Check to see if the wait condition is already met or not. */
		xWaitConditionMet = prvTestWaitCondition( uxCurrentEventBits, uxBitsToWaitFor, xWaitForAllBits );
   204d0:	e1bfff17 	ldw	r6,-4(fp)
   204d4:	e17ffd17 	ldw	r5,-12(fp)
   204d8:	e13ff917 	ldw	r4,-28(fp)
   204dc:	002093c0 	call	2093c <prvTestWaitCondition>
   204e0:	e0bffa15 	stw	r2,-24(fp)

		if( xWaitConditionMet != pdFALSE )
   204e4:	e0bffa17 	ldw	r2,-24(fp)
   204e8:	10000d26 	beq	r2,zero,20520 <xEventGroupWaitBits+0x90>
		{
			/* The wait condition has already been met so there is no need to
			block. */
			uxReturn = uxCurrentEventBits;
   204ec:	e0bff917 	ldw	r2,-28(fp)
   204f0:	e0bff515 	stw	r2,-44(fp)
			xTicksToWait = ( TickType_t ) 0;
   204f4:	e0000215 	stw	zero,8(fp)

			/* Clear the wait bits if requested to do so. */
			if( xClearOnExit != pdFALSE )
   204f8:	e0bffe17 	ldw	r2,-8(fp)
   204fc:	10002026 	beq	r2,zero,20580 <xEventGroupWaitBits+0xf0>
			{
				pxEventBits->uxEventBits &= ~uxBitsToWaitFor;
   20500:	e0bff717 	ldw	r2,-36(fp)
   20504:	10c00017 	ldw	r3,0(r2)
   20508:	e0bffd17 	ldw	r2,-12(fp)
   2050c:	0084303a 	nor	r2,zero,r2
   20510:	1886703a 	and	r3,r3,r2
   20514:	e0bff717 	ldw	r2,-36(fp)
   20518:	10c00015 	stw	r3,0(r2)
   2051c:	00001806 	br	20580 <xEventGroupWaitBits+0xf0>
			else
			{
				mtCOVERAGE_TEST_MARKER();
			}
		}
		else if( xTicksToWait == ( TickType_t ) 0 )
   20520:	e0800217 	ldw	r2,8(fp)
   20524:	1000031e 	bne	r2,zero,20534 <xEventGroupWaitBits+0xa4>
		{
			/* The wait condition has not been met, but no block time was
			specified, so just return the current value. */
			uxReturn = uxCurrentEventBits;
   20528:	e0bff917 	ldw	r2,-28(fp)
   2052c:	e0bff515 	stw	r2,-44(fp)
   20530:	00001306 	br	20580 <xEventGroupWaitBits+0xf0>
		{
			/* The task is going to block to wait for its required bits to be
			set.  uxControlBits are used to remember the specified behaviour of
			this call to xEventGroupWaitBits() - for use when the event bits
			unblock the task. */
			if( xClearOnExit != pdFALSE )
   20534:	e0bffe17 	ldw	r2,-8(fp)
   20538:	10000326 	beq	r2,zero,20548 <xEventGroupWaitBits+0xb8>
			{
				uxControlBits |= eventCLEAR_EVENTS_ON_EXIT_BIT;
   2053c:	e0bff617 	ldw	r2,-40(fp)
   20540:	10804034 	orhi	r2,r2,256
   20544:	e0bff615 	stw	r2,-40(fp)
			else
			{
				mtCOVERAGE_TEST_MARKER();
			}

			if( xWaitForAllBits != pdFALSE )
   20548:	e0bfff17 	ldw	r2,-4(fp)
   2054c:	10000326 	beq	r2,zero,2055c <xEventGroupWaitBits+0xcc>
			{
				uxControlBits |= eventWAIT_FOR_ALL_BITS;
   20550:	e0bff617 	ldw	r2,-40(fp)
   20554:	10810034 	orhi	r2,r2,1024
   20558:	e0bff615 	stw	r2,-40(fp)
			}

			/* Store the bits that the calling task is waiting for in the
			task's event list item so the kernel knows when a match is
			found.  Then enter the blocked state. */
			vTaskPlaceOnUnorderedEventList( &( pxEventBits->xTasksWaitingForBits ), ( uxBitsToWaitFor | uxControlBits ), xTicksToWait );
   2055c:	e0bff717 	ldw	r2,-36(fp)
   20560:	11000104 	addi	r4,r2,4
   20564:	e0fffd17 	ldw	r3,-12(fp)
   20568:	e0bff617 	ldw	r2,-40(fp)
   2056c:	1884b03a 	or	r2,r3,r2
   20570:	e1800217 	ldw	r6,8(fp)
   20574:	100b883a 	mov	r5,r2
   20578:	0022c440 	call	22c44 <vTaskPlaceOnUnorderedEventList>

			/* This is obsolete as it will get set after the task unblocks, but
			some compilers mistakenly generate a warning about the variable
			being returned without being set if it is not done. */
			uxReturn = 0;
   2057c:	e03ff515 	stw	zero,-44(fp)

			traceEVENT_GROUP_WAIT_BITS_BLOCK( xEventGroup, uxBitsToWaitFor );
		}
	}
	xAlreadyYielded = xTaskResumeAll();
   20580:	002274c0 	call	2274c <xTaskResumeAll>
   20584:	e0bffb15 	stw	r2,-20(fp)

	if( xTicksToWait != ( TickType_t ) 0 )
   20588:	e0800217 	ldw	r2,8(fp)
   2058c:	10002126 	beq	r2,zero,20614 <xEventGroupWaitBits+0x184>
	{
		if( xAlreadyYielded == pdFALSE )
   20590:	e0bffb17 	ldw	r2,-20(fp)
   20594:	1000011e 	bne	r2,zero,2059c <xEventGroupWaitBits+0x10c>
		{
			portYIELD_WITHIN_API();
   20598:	003b683a 	trap	0

		/* The task blocked to wait for its required bits to be set - at this
		point either the required bits were set or the block time expired.  If
		the required bits were set they will have been stored in the task's
		event list item, and they should now be retrieved then cleared. */
		uxReturn = uxTaskResetEventItemValue();
   2059c:	00231d00 	call	231d0 <uxTaskResetEventItemValue>
   205a0:	e0bff515 	stw	r2,-44(fp)

		if( ( uxReturn & eventUNBLOCKED_DUE_TO_BIT_SET ) == ( EventBits_t ) 0 )
   205a4:	e0bff517 	ldw	r2,-44(fp)
   205a8:	1080802c 	andhi	r2,r2,512
   205ac:	1000141e 	bne	r2,zero,20600 <xEventGroupWaitBits+0x170>
		{
			taskENTER_CRITICAL();
   205b0:	002311c0 	call	2311c <vTaskEnterCritical>
			{
				/* The task timed out, just return the current event bit value. */
				uxReturn = pxEventBits->uxEventBits;
   205b4:	e0bff717 	ldw	r2,-36(fp)
   205b8:	10800017 	ldw	r2,0(r2)
   205bc:	e0bff515 	stw	r2,-44(fp)

				/* It is possible that the event bits were updated between this
				task leaving the Blocked state and running again. */
				if( prvTestWaitCondition( uxReturn, uxBitsToWaitFor, xWaitForAllBits ) != pdFALSE )
   205c0:	e1bfff17 	ldw	r6,-4(fp)
   205c4:	e17ffd17 	ldw	r5,-12(fp)
   205c8:	e13ff517 	ldw	r4,-44(fp)
   205cc:	002093c0 	call	2093c <prvTestWaitCondition>
   205d0:	10000926 	beq	r2,zero,205f8 <xEventGroupWaitBits+0x168>
				{
					if( xClearOnExit != pdFALSE )
   205d4:	e0bffe17 	ldw	r2,-8(fp)
   205d8:	10000726 	beq	r2,zero,205f8 <xEventGroupWaitBits+0x168>
					{
						pxEventBits->uxEventBits &= ~uxBitsToWaitFor;
   205dc:	e0bff717 	ldw	r2,-36(fp)
   205e0:	10c00017 	ldw	r3,0(r2)
   205e4:	e0bffd17 	ldw	r2,-12(fp)
   205e8:	0084303a 	nor	r2,zero,r2
   205ec:	1886703a 	and	r3,r3,r2
   205f0:	e0bff717 	ldw	r2,-36(fp)
   205f4:	10c00015 	stw	r3,0(r2)
				else
				{
					mtCOVERAGE_TEST_MARKER();
				}
			}
			taskEXIT_CRITICAL();
   205f8:	00231700 	call	23170 <vTaskExitCritical>

			/* Prevent compiler warnings when trace macros are not used. */
			xTimeoutOccurred = pdFALSE;
   205fc:	e03ff815 	stw	zero,-32(fp)
		{
			/* The task unblocked because the bits were set. */
		}

		/* The task blocked so control bits may have been set. */
		uxReturn &= ~eventEVENT_BITS_CONTROL_BYTES;
   20600:	e0fff517 	ldw	r3,-44(fp)
   20604:	00804034 	movhi	r2,256
   20608:	10bfffc4 	addi	r2,r2,-1
   2060c:	1884703a 	and	r2,r3,r2
   20610:	e0bff515 	stw	r2,-44(fp)
	}
	traceEVENT_GROUP_WAIT_BITS_END( xEventGroup, uxBitsToWaitFor, xTimeoutOccurred );

	return uxReturn;
   20614:	e0bff517 	ldw	r2,-44(fp)
}
   20618:	e037883a 	mov	sp,fp
   2061c:	dfc00117 	ldw	ra,4(sp)
   20620:	df000017 	ldw	fp,0(sp)
   20624:	dec00204 	addi	sp,sp,8
   20628:	f800283a 	ret

0002062c <xEventGroupClearBits>:
/*-----------------------------------------------------------*/

EventBits_t xEventGroupClearBits( EventGroupHandle_t xEventGroup, const EventBits_t uxBitsToClear )
{
   2062c:	defffa04 	addi	sp,sp,-24
   20630:	dfc00515 	stw	ra,20(sp)
   20634:	df000415 	stw	fp,16(sp)
   20638:	df000404 	addi	fp,sp,16
   2063c:	e13ffe15 	stw	r4,-8(fp)
   20640:	e17fff15 	stw	r5,-4(fp)
EventGroup_t *pxEventBits = ( EventGroup_t * ) xEventGroup;
   20644:	e0bffe17 	ldw	r2,-8(fp)
   20648:	e0bffc15 	stw	r2,-16(fp)
	/* Check the user is not attempting to clear the bits used by the kernel
	itself. */
	configASSERT( xEventGroup );
	configASSERT( ( uxBitsToClear & eventEVENT_BITS_CONTROL_BYTES ) == 0 );

	taskENTER_CRITICAL();
   2064c:	002311c0 	call	2311c <vTaskEnterCritical>
	{
		traceEVENT_GROUP_CLEAR_BITS( xEventGroup, uxBitsToClear );

		/* The value returned is the event group value prior to the bits being
		cleared. */
		uxReturn = pxEventBits->uxEventBits;
   20650:	e0bffc17 	ldw	r2,-16(fp)
   20654:	10800017 	ldw	r2,0(r2)
   20658:	e0bffd15 	stw	r2,-12(fp)

		/* Clear the bits. */
		pxEventBits->uxEventBits &= ~uxBitsToClear;
   2065c:	e0bffc17 	ldw	r2,-16(fp)
   20660:	10c00017 	ldw	r3,0(r2)
   20664:	e0bfff17 	ldw	r2,-4(fp)
   20668:	0084303a 	nor	r2,zero,r2
   2066c:	1886703a 	and	r3,r3,r2
   20670:	e0bffc17 	ldw	r2,-16(fp)
   20674:	10c00015 	stw	r3,0(r2)
	}
	taskEXIT_CRITICAL();
   20678:	00231700 	call	23170 <vTaskExitCritical>

	return uxReturn;
   2067c:	e0bffd17 	ldw	r2,-12(fp)
}
   20680:	e037883a 	mov	sp,fp
   20684:	dfc00117 	ldw	ra,4(sp)
   20688:	df000017 	ldw	fp,0(sp)
   2068c:	dec00204 	addi	sp,sp,8
   20690:	f800283a 	ret

00020694 <xEventGroupGetBitsFromISR>:

#endif
/*-----------------------------------------------------------*/

EventBits_t xEventGroupGetBitsFromISR( EventGroupHandle_t xEventGroup )
{
   20694:	defffb04 	addi	sp,sp,-20
   20698:	df000415 	stw	fp,16(sp)
   2069c:	df000404 	addi	fp,sp,16
   206a0:	e13fff15 	stw	r4,-4(fp)
UBaseType_t uxSavedInterruptStatus;
EventGroup_t *pxEventBits = ( EventGroup_t * ) xEventGroup;
   206a4:	e0bfff17 	ldw	r2,-4(fp)
   206a8:	e0bffc15 	stw	r2,-16(fp)
EventBits_t uxReturn;

	uxSavedInterruptStatus = portSET_INTERRUPT_MASK_FROM_ISR();
   206ac:	e03ffd15 	stw	zero,-12(fp)
	{
		uxReturn = pxEventBits->uxEventBits;
   206b0:	e0bffc17 	ldw	r2,-16(fp)
   206b4:	10800017 	ldw	r2,0(r2)
   206b8:	e0bffe15 	stw	r2,-8(fp)
	}
	portCLEAR_INTERRUPT_MASK_FROM_ISR( uxSavedInterruptStatus );

	return uxReturn;
   206bc:	e0bffe17 	ldw	r2,-8(fp)
}
   206c0:	e037883a 	mov	sp,fp
   206c4:	df000017 	ldw	fp,0(sp)
   206c8:	dec00104 	addi	sp,sp,4
   206cc:	f800283a 	ret

000206d0 <xEventGroupSetBits>:
/*-----------------------------------------------------------*/

EventBits_t xEventGroupSetBits( EventGroupHandle_t xEventGroup, const EventBits_t uxBitsToSet )
{
   206d0:	defff304 	addi	sp,sp,-52
   206d4:	dfc00c15 	stw	ra,48(sp)
   206d8:	df000b15 	stw	fp,44(sp)
   206dc:	df000b04 	addi	fp,sp,44
   206e0:	e13ffe15 	stw	r4,-8(fp)
   206e4:	e17fff15 	stw	r5,-4(fp)
ListItem_t *pxListItem, *pxNext;
ListItem_t const *pxListEnd;
List_t *pxList;
EventBits_t uxBitsToClear = 0, uxBitsWaitedFor, uxControlBits;
   206e8:	e03ff615 	stw	zero,-40(fp)
EventGroup_t *pxEventBits = ( EventGroup_t * ) xEventGroup;
   206ec:	e0bffe17 	ldw	r2,-8(fp)
   206f0:	e0bff815 	stw	r2,-32(fp)
BaseType_t xMatchFound = pdFALSE;
   206f4:	e03ff715 	stw	zero,-36(fp)
	/* Check the user is not attempting to set the bits used by the kernel
	itself. */
	configASSERT( xEventGroup );
	configASSERT( ( uxBitsToSet & eventEVENT_BITS_CONTROL_BYTES ) == 0 );

	pxList = &( pxEventBits->xTasksWaitingForBits );
   206f8:	e0bff817 	ldw	r2,-32(fp)
   206fc:	10800104 	addi	r2,r2,4
   20700:	e0bff915 	stw	r2,-28(fp)
	pxListEnd = listGET_END_MARKER( pxList ); /*lint !e826 !e740 The mini list structure is used as the list end to save RAM.  This is checked and valid. */
   20704:	e0bff917 	ldw	r2,-28(fp)
   20708:	10800204 	addi	r2,r2,8
   2070c:	e0bffa15 	stw	r2,-24(fp)
	vTaskSuspendAll();
   20710:	00227200 	call	22720 <vTaskSuspendAll>
	{
		traceEVENT_GROUP_SET_BITS( xEventGroup, uxBitsToSet );

		pxListItem = listGET_HEAD_ENTRY( pxList );
   20714:	e0bff917 	ldw	r2,-28(fp)
   20718:	10800317 	ldw	r2,12(r2)
   2071c:	e0bff515 	stw	r2,-44(fp)

		/* Set the bits. */
		pxEventBits->uxEventBits |= uxBitsToSet;
   20720:	e0bff817 	ldw	r2,-32(fp)
   20724:	10c00017 	ldw	r3,0(r2)
   20728:	e0bfff17 	ldw	r2,-4(fp)
   2072c:	1886b03a 	or	r3,r3,r2
   20730:	e0bff817 	ldw	r2,-32(fp)
   20734:	10c00015 	stw	r3,0(r2)

		/* See if the new bit value should unblock any tasks. */
		while( pxListItem != pxListEnd )
   20738:	00003306 	br	20808 <xEventGroupSetBits+0x138>
		{
			pxNext = listGET_NEXT( pxListItem );
   2073c:	e0bff517 	ldw	r2,-44(fp)
   20740:	10800117 	ldw	r2,4(r2)
   20744:	e0bffb15 	stw	r2,-20(fp)
			uxBitsWaitedFor = listGET_LIST_ITEM_VALUE( pxListItem );
   20748:	e0bff517 	ldw	r2,-44(fp)
   2074c:	10800017 	ldw	r2,0(r2)
   20750:	e0bffc15 	stw	r2,-16(fp)
			xMatchFound = pdFALSE;
   20754:	e03ff715 	stw	zero,-36(fp)

			/* Split the bits waited for from the control bits. */
			uxControlBits = uxBitsWaitedFor & eventEVENT_BITS_CONTROL_BYTES;
   20758:	e0bffc17 	ldw	r2,-16(fp)
   2075c:	10bfc02c 	andhi	r2,r2,65280
   20760:	e0bffd15 	stw	r2,-12(fp)
			uxBitsWaitedFor &= ~eventEVENT_BITS_CONTROL_BYTES;
   20764:	e0fffc17 	ldw	r3,-16(fp)
   20768:	00804034 	movhi	r2,256
   2076c:	10bfffc4 	addi	r2,r2,-1
   20770:	1884703a 	and	r2,r3,r2
   20774:	e0bffc15 	stw	r2,-16(fp)

			if( ( uxControlBits & eventWAIT_FOR_ALL_BITS ) == ( EventBits_t ) 0 )
   20778:	e0bffd17 	ldw	r2,-12(fp)
   2077c:	1081002c 	andhi	r2,r2,1024
   20780:	1000081e 	bne	r2,zero,207a4 <xEventGroupSetBits+0xd4>
			{
				/* Just looking for single bit being set. */
				if( ( uxBitsWaitedFor & pxEventBits->uxEventBits ) != ( EventBits_t ) 0 )
   20784:	e0bff817 	ldw	r2,-32(fp)
   20788:	10c00017 	ldw	r3,0(r2)
   2078c:	e0bffc17 	ldw	r2,-16(fp)
   20790:	1884703a 	and	r2,r3,r2
   20794:	10000b26 	beq	r2,zero,207c4 <xEventGroupSetBits+0xf4>
				{
					xMatchFound = pdTRUE;
   20798:	00800044 	movi	r2,1
   2079c:	e0bff715 	stw	r2,-36(fp)
   207a0:	00000806 	br	207c4 <xEventGroupSetBits+0xf4>
				else
				{
					mtCOVERAGE_TEST_MARKER();
				}
			}
			else if( ( uxBitsWaitedFor & pxEventBits->uxEventBits ) == uxBitsWaitedFor )
   207a4:	e0bff817 	ldw	r2,-32(fp)
   207a8:	10c00017 	ldw	r3,0(r2)
   207ac:	e0bffc17 	ldw	r2,-16(fp)
   207b0:	1886703a 	and	r3,r3,r2
   207b4:	e0bffc17 	ldw	r2,-16(fp)
   207b8:	1880021e 	bne	r3,r2,207c4 <xEventGroupSetBits+0xf4>
			{
				/* All bits are set. */
				xMatchFound = pdTRUE;
   207bc:	00800044 	movi	r2,1
   207c0:	e0bff715 	stw	r2,-36(fp)
			else
			{
				/* Need all bits to be set, but not all the bits were set. */
			}

			if( xMatchFound != pdFALSE )
   207c4:	e0bff717 	ldw	r2,-36(fp)
   207c8:	10000d26 	beq	r2,zero,20800 <xEventGroupSetBits+0x130>
			{
				/* The bits match.  Should the bits be cleared on exit? */
				if( ( uxControlBits & eventCLEAR_EVENTS_ON_EXIT_BIT ) != ( EventBits_t ) 0 )
   207cc:	e0bffd17 	ldw	r2,-12(fp)
   207d0:	1080402c 	andhi	r2,r2,256
   207d4:	10000426 	beq	r2,zero,207e8 <xEventGroupSetBits+0x118>
				{
					uxBitsToClear |= uxBitsWaitedFor;
   207d8:	e0fff617 	ldw	r3,-40(fp)
   207dc:	e0bffc17 	ldw	r2,-16(fp)
   207e0:	1884b03a 	or	r2,r3,r2
   207e4:	e0bff615 	stw	r2,-40(fp)
				/* Store the actual event flag value in the task's event list
				item before removing the task from the event list.  The
				eventUNBLOCKED_DUE_TO_BIT_SET bit is set so the task knows
				that is was unblocked due to its required bits matching, rather
				than because it timed out. */
				( void ) xTaskRemoveFromUnorderedEventList( pxListItem, pxEventBits->uxEventBits | eventUNBLOCKED_DUE_TO_BIT_SET );
   207e8:	e0bff817 	ldw	r2,-32(fp)
   207ec:	10800017 	ldw	r2,0(r2)
   207f0:	10808034 	orhi	r2,r2,512
   207f4:	100b883a 	mov	r5,r2
   207f8:	e13ff517 	ldw	r4,-44(fp)
   207fc:	0022d9c0 	call	22d9c <xTaskRemoveFromUnorderedEventList>
			}

			/* Move onto the next list item.  Note pxListItem->pxNext is not
			used here as the list item may have been removed from the event list
			and inserted into the ready/pending reading list. */
			pxListItem = pxNext;
   20800:	e0bffb17 	ldw	r2,-20(fp)
   20804:	e0bff515 	stw	r2,-44(fp)

		/* Set the bits. */
		pxEventBits->uxEventBits |= uxBitsToSet;

		/* See if the new bit value should unblock any tasks. */
		while( pxListItem != pxListEnd )
   20808:	e0fff517 	ldw	r3,-44(fp)
   2080c:	e0bffa17 	ldw	r2,-24(fp)
   20810:	18bfca1e 	bne	r3,r2,2073c <__reset+0xfff8073c>
			pxListItem = pxNext;
		}

		/* Clear any bits that matched when the eventCLEAR_EVENTS_ON_EXIT_BIT
		bit was set in the control word. */
		pxEventBits->uxEventBits &= ~uxBitsToClear;
   20814:	e0bff817 	ldw	r2,-32(fp)
   20818:	10c00017 	ldw	r3,0(r2)
   2081c:	e0bff617 	ldw	r2,-40(fp)
   20820:	0084303a 	nor	r2,zero,r2
   20824:	1886703a 	and	r3,r3,r2
   20828:	e0bff817 	ldw	r2,-32(fp)
   2082c:	10c00015 	stw	r3,0(r2)
	}
	( void ) xTaskResumeAll();
   20830:	002274c0 	call	2274c <xTaskResumeAll>

	return pxEventBits->uxEventBits;
   20834:	e0bff817 	ldw	r2,-32(fp)
   20838:	10800017 	ldw	r2,0(r2)
}
   2083c:	e037883a 	mov	sp,fp
   20840:	dfc00117 	ldw	ra,4(sp)
   20844:	df000017 	ldw	fp,0(sp)
   20848:	dec00204 	addi	sp,sp,8
   2084c:	f800283a 	ret

00020850 <vEventGroupDelete>:
/*-----------------------------------------------------------*/

void vEventGroupDelete( EventGroupHandle_t xEventGroup )
{
   20850:	defffb04 	addi	sp,sp,-20
   20854:	dfc00415 	stw	ra,16(sp)
   20858:	df000315 	stw	fp,12(sp)
   2085c:	df000304 	addi	fp,sp,12
   20860:	e13fff15 	stw	r4,-4(fp)
EventGroup_t *pxEventBits = ( EventGroup_t * ) xEventGroup;
   20864:	e0bfff17 	ldw	r2,-4(fp)
   20868:	e0bffd15 	stw	r2,-12(fp)
const List_t *pxTasksWaitingForBits = &( pxEventBits->xTasksWaitingForBits );
   2086c:	e0bffd17 	ldw	r2,-12(fp)
   20870:	10800104 	addi	r2,r2,4
   20874:	e0bffe15 	stw	r2,-8(fp)

	vTaskSuspendAll();
   20878:	00227200 	call	22720 <vTaskSuspendAll>
	{
		traceEVENT_GROUP_DELETE( xEventGroup );

		while( listCURRENT_LIST_LENGTH( pxTasksWaitingForBits ) > ( UBaseType_t ) 0 )
   2087c:	00000506 	br	20894 <vEventGroupDelete+0x44>
		{
			/* Unblock the task, returning 0 as the event list is being deleted
			and	cannot therefore have any bits set. */
			configASSERT( pxTasksWaitingForBits->xListEnd.pxNext != ( ListItem_t * ) &( pxTasksWaitingForBits->xListEnd ) );
			( void ) xTaskRemoveFromUnorderedEventList( pxTasksWaitingForBits->xListEnd.pxNext, eventUNBLOCKED_DUE_TO_BIT_SET );
   20880:	e0bffe17 	ldw	r2,-8(fp)
   20884:	10800317 	ldw	r2,12(r2)
   20888:	01408034 	movhi	r5,512
   2088c:	1009883a 	mov	r4,r2
   20890:	0022d9c0 	call	22d9c <xTaskRemoveFromUnorderedEventList>

	vTaskSuspendAll();
	{
		traceEVENT_GROUP_DELETE( xEventGroup );

		while( listCURRENT_LIST_LENGTH( pxTasksWaitingForBits ) > ( UBaseType_t ) 0 )
   20894:	e0bffe17 	ldw	r2,-8(fp)
   20898:	10800017 	ldw	r2,0(r2)
   2089c:	103ff81e 	bne	r2,zero,20880 <__reset+0xfff80880>

		#if( ( configSUPPORT_DYNAMIC_ALLOCATION == 1 ) && ( configSUPPORT_STATIC_ALLOCATION == 0 ) )
		{
			/* The event group can only have been allocated dynamically - free
			it again. */
			vPortFree( pxEventBits );
   208a0:	e13ffd17 	ldw	r4,-12(fp)
   208a4:	0020a680 	call	20a68 <vPortFree>
				mtCOVERAGE_TEST_MARKER();
			}
		}
		#endif /* configSUPPORT_DYNAMIC_ALLOCATION */
	}
	( void ) xTaskResumeAll();
   208a8:	002274c0 	call	2274c <xTaskResumeAll>
}
   208ac:	0001883a 	nop
   208b0:	e037883a 	mov	sp,fp
   208b4:	dfc00117 	ldw	ra,4(sp)
   208b8:	df000017 	ldw	fp,0(sp)
   208bc:	dec00204 	addi	sp,sp,8
   208c0:	f800283a 	ret

000208c4 <vEventGroupSetBitsCallback>:
/*-----------------------------------------------------------*/

/* For internal use only - execute a 'set bits' command that was pended from
an interrupt. */
void vEventGroupSetBitsCallback( void *pvEventGroup, const uint32_t ulBitsToSet )
{
   208c4:	defffc04 	addi	sp,sp,-16
   208c8:	dfc00315 	stw	ra,12(sp)
   208cc:	df000215 	stw	fp,8(sp)
   208d0:	df000204 	addi	fp,sp,8
   208d4:	e13ffe15 	stw	r4,-8(fp)
   208d8:	e17fff15 	stw	r5,-4(fp)
	( void ) xEventGroupSetBits( pvEventGroup, ( EventBits_t ) ulBitsToSet );
   208dc:	e17fff17 	ldw	r5,-4(fp)
   208e0:	e13ffe17 	ldw	r4,-8(fp)
   208e4:	00206d00 	call	206d0 <xEventGroupSetBits>
}
   208e8:	0001883a 	nop
   208ec:	e037883a 	mov	sp,fp
   208f0:	dfc00117 	ldw	ra,4(sp)
   208f4:	df000017 	ldw	fp,0(sp)
   208f8:	dec00204 	addi	sp,sp,8
   208fc:	f800283a 	ret

00020900 <vEventGroupClearBitsCallback>:
/*-----------------------------------------------------------*/

/* For internal use only - execute a 'clear bits' command that was pended from
an interrupt. */
void vEventGroupClearBitsCallback( void *pvEventGroup, const uint32_t ulBitsToClear )
{
   20900:	defffc04 	addi	sp,sp,-16
   20904:	dfc00315 	stw	ra,12(sp)
   20908:	df000215 	stw	fp,8(sp)
   2090c:	df000204 	addi	fp,sp,8
   20910:	e13ffe15 	stw	r4,-8(fp)
   20914:	e17fff15 	stw	r5,-4(fp)
	( void ) xEventGroupClearBits( pvEventGroup, ( EventBits_t ) ulBitsToClear );
   20918:	e17fff17 	ldw	r5,-4(fp)
   2091c:	e13ffe17 	ldw	r4,-8(fp)
   20920:	002062c0 	call	2062c <xEventGroupClearBits>
}
   20924:	0001883a 	nop
   20928:	e037883a 	mov	sp,fp
   2092c:	dfc00117 	ldw	ra,4(sp)
   20930:	df000017 	ldw	fp,0(sp)
   20934:	dec00204 	addi	sp,sp,8
   20938:	f800283a 	ret

0002093c <prvTestWaitCondition>:
/*-----------------------------------------------------------*/

static BaseType_t prvTestWaitCondition( const EventBits_t uxCurrentEventBits, const EventBits_t uxBitsToWaitFor, const BaseType_t xWaitForAllBits )
{
   2093c:	defffb04 	addi	sp,sp,-20
   20940:	df000415 	stw	fp,16(sp)
   20944:	df000404 	addi	fp,sp,16
   20948:	e13ffd15 	stw	r4,-12(fp)
   2094c:	e17ffe15 	stw	r5,-8(fp)
   20950:	e1bfff15 	stw	r6,-4(fp)
BaseType_t xWaitConditionMet = pdFALSE;
   20954:	e03ffc15 	stw	zero,-16(fp)

	if( xWaitForAllBits == pdFALSE )
   20958:	e0bfff17 	ldw	r2,-4(fp)
   2095c:	1000071e 	bne	r2,zero,2097c <prvTestWaitCondition+0x40>
	{
		/* Task only has to wait for one bit within uxBitsToWaitFor to be
		set.  Is one already set? */
		if( ( uxCurrentEventBits & uxBitsToWaitFor ) != ( EventBits_t ) 0 )
   20960:	e0fffd17 	ldw	r3,-12(fp)
   20964:	e0bffe17 	ldw	r2,-8(fp)
   20968:	1884703a 	and	r2,r3,r2
   2096c:	10000a26 	beq	r2,zero,20998 <prvTestWaitCondition+0x5c>
		{
			xWaitConditionMet = pdTRUE;
   20970:	00800044 	movi	r2,1
   20974:	e0bffc15 	stw	r2,-16(fp)
   20978:	00000706 	br	20998 <prvTestWaitCondition+0x5c>
	}
	else
	{
		/* Task has to wait for all the bits in uxBitsToWaitFor to be set.
		Are they set already? */
		if( ( uxCurrentEventBits & uxBitsToWaitFor ) == uxBitsToWaitFor )
   2097c:	e0fffd17 	ldw	r3,-12(fp)
   20980:	e0bffe17 	ldw	r2,-8(fp)
   20984:	1886703a 	and	r3,r3,r2
   20988:	e0bffe17 	ldw	r2,-8(fp)
   2098c:	1880021e 	bne	r3,r2,20998 <prvTestWaitCondition+0x5c>
		{
			xWaitConditionMet = pdTRUE;
   20990:	00800044 	movi	r2,1
   20994:	e0bffc15 	stw	r2,-16(fp)
		{
			mtCOVERAGE_TEST_MARKER();
		}
	}

	return xWaitConditionMet;
   20998:	e0bffc17 	ldw	r2,-16(fp)
}
   2099c:	e037883a 	mov	sp,fp
   209a0:	df000017 	ldw	fp,0(sp)
   209a4:	dec00104 	addi	sp,sp,4
   209a8:	f800283a 	ret

000209ac <pvPortMalloc>:
static size_t xNextFreeByte = ( size_t ) 0;

/*-----------------------------------------------------------*/

void *pvPortMalloc( size_t xWantedSize )
{
   209ac:	defffc04 	addi	sp,sp,-16
   209b0:	dfc00315 	stw	ra,12(sp)
   209b4:	df000215 	stw	fp,8(sp)
   209b8:	df000204 	addi	fp,sp,8
   209bc:	e13fff15 	stw	r4,-4(fp)
void *pvReturn = NULL;
   209c0:	e03ffe15 	stw	zero,-8(fp)
static uint8_t *pucAlignedHeap = NULL;

	/* Ensure that blocks are always aligned to the required number of bytes. */
	#if( portBYTE_ALIGNMENT != 1 )
	{
		if( xWantedSize & portBYTE_ALIGNMENT_MASK )
   209c4:	e0bfff17 	ldw	r2,-4(fp)
   209c8:	108000cc 	andi	r2,r2,3
   209cc:	10000526 	beq	r2,zero,209e4 <pvPortMalloc+0x38>
		{
			/* Byte alignment required. */
			xWantedSize += ( portBYTE_ALIGNMENT - ( xWantedSize & portBYTE_ALIGNMENT_MASK ) );
   209d0:	e0ffff17 	ldw	r3,-4(fp)
   209d4:	00bfff04 	movi	r2,-4
   209d8:	1884703a 	and	r2,r3,r2
   209dc:	10800104 	addi	r2,r2,4
   209e0:	e0bfff15 	stw	r2,-4(fp)
		}
	}
	#endif

	vTaskSuspendAll();
   209e4:	00227200 	call	22720 <vTaskSuspendAll>
	{
		if( pucAlignedHeap == NULL )
   209e8:	d0a01b17 	ldw	r2,-32660(gp)
   209ec:	1000051e 	bne	r2,zero,20a04 <pvPortMalloc+0x58>
		{
			/* Ensure the heap starts on a correctly aligned boundary. */
			pucAlignedHeap = ( uint8_t * ) ( ( ( portPOINTER_SIZE_TYPE ) &ucHeap[ portBYTE_ALIGNMENT ] ) & ( ~( ( portPOINTER_SIZE_TYPE ) portBYTE_ALIGNMENT_MASK ) ) );
   209f0:	008000f4 	movhi	r2,3
   209f4:	10934f04 	addi	r2,r2,19772
   209f8:	00ffff04 	movi	r3,-4
   209fc:	10c4703a 	and	r2,r2,r3
   20a00:	d0a01b15 	stw	r2,-32660(gp)
		}

		/* Check there is enough room left for the allocation. */
		if( ( ( xNextFreeByte + xWantedSize ) < configADJUSTED_HEAP_SIZE ) &&
   20a04:	d0e01a17 	ldw	r3,-32664(gp)
   20a08:	e0bfff17 	ldw	r2,-4(fp)
   20a0c:	1885883a 	add	r2,r3,r2
   20a10:	108fff28 	cmpgeui	r2,r2,16380
   20a14:	10000d1e 	bne	r2,zero,20a4c <pvPortMalloc+0xa0>
			( ( xNextFreeByte + xWantedSize ) > xNextFreeByte )	)/* Check for overflow. */
   20a18:	d0e01a17 	ldw	r3,-32664(gp)
   20a1c:	e0bfff17 	ldw	r2,-4(fp)
   20a20:	1885883a 	add	r2,r3,r2
   20a24:	d0e01a17 	ldw	r3,-32664(gp)
			/* Ensure the heap starts on a correctly aligned boundary. */
			pucAlignedHeap = ( uint8_t * ) ( ( ( portPOINTER_SIZE_TYPE ) &ucHeap[ portBYTE_ALIGNMENT ] ) & ( ~( ( portPOINTER_SIZE_TYPE ) portBYTE_ALIGNMENT_MASK ) ) );
		}

		/* Check there is enough room left for the allocation. */
		if( ( ( xNextFreeByte + xWantedSize ) < configADJUSTED_HEAP_SIZE ) &&
   20a28:	1880082e 	bgeu	r3,r2,20a4c <pvPortMalloc+0xa0>
			( ( xNextFreeByte + xWantedSize ) > xNextFreeByte )	)/* Check for overflow. */
		{
			/* Return the next free byte then increment the index past this
			block. */
			pvReturn = pucAlignedHeap + xNextFreeByte;
   20a2c:	d0e01b17 	ldw	r3,-32660(gp)
   20a30:	d0a01a17 	ldw	r2,-32664(gp)
   20a34:	1885883a 	add	r2,r3,r2
   20a38:	e0bffe15 	stw	r2,-8(fp)
			xNextFreeByte += xWantedSize;
   20a3c:	d0e01a17 	ldw	r3,-32664(gp)
   20a40:	e0bfff17 	ldw	r2,-4(fp)
   20a44:	1885883a 	add	r2,r3,r2
   20a48:	d0a01a15 	stw	r2,-32664(gp)
		}

		traceMALLOC( pvReturn, xWantedSize );
	}
	( void ) xTaskResumeAll();
   20a4c:	002274c0 	call	2274c <xTaskResumeAll>
			vApplicationMallocFailedHook();
		}
	}
	#endif

	return pvReturn;
   20a50:	e0bffe17 	ldw	r2,-8(fp)
}
   20a54:	e037883a 	mov	sp,fp
   20a58:	dfc00117 	ldw	ra,4(sp)
   20a5c:	df000017 	ldw	fp,0(sp)
   20a60:	dec00204 	addi	sp,sp,8
   20a64:	f800283a 	ret

00020a68 <vPortFree>:
/*-----------------------------------------------------------*/

void vPortFree( void *pv )
{
   20a68:	defffe04 	addi	sp,sp,-8
   20a6c:	df000115 	stw	fp,4(sp)
   20a70:	df000104 	addi	fp,sp,4
   20a74:	e13fff15 	stw	r4,-4(fp)
	http://www.FreeRTOS.org for more information. */
	( void ) pv;

	/* Force an assert as it is invalid to call this function. */
	configASSERT( pv == NULL );
}
   20a78:	0001883a 	nop
   20a7c:	e037883a 	mov	sp,fp
   20a80:	df000017 	ldw	fp,0(sp)
   20a84:	dec00104 	addi	sp,sp,4
   20a88:	f800283a 	ret

00020a8c <vPortInitialiseBlocks>:
/*-----------------------------------------------------------*/

void vPortInitialiseBlocks( void )
{
   20a8c:	deffff04 	addi	sp,sp,-4
   20a90:	df000015 	stw	fp,0(sp)
   20a94:	d839883a 	mov	fp,sp
	/* Only required when static memory is not cleared. */
	xNextFreeByte = ( size_t ) 0;
   20a98:	d0201a15 	stw	zero,-32664(gp)
}
   20a9c:	0001883a 	nop
   20aa0:	e037883a 	mov	sp,fp
   20aa4:	df000017 	ldw	fp,0(sp)
   20aa8:	dec00104 	addi	sp,sp,4
   20aac:	f800283a 	ret

00020ab0 <xPortGetFreeHeapSize>:
/*-----------------------------------------------------------*/

size_t xPortGetFreeHeapSize( void )
{
   20ab0:	deffff04 	addi	sp,sp,-4
   20ab4:	df000015 	stw	fp,0(sp)
   20ab8:	d839883a 	mov	fp,sp
	return ( configADJUSTED_HEAP_SIZE - xNextFreeByte );
   20abc:	d0a01a17 	ldw	r2,-32664(gp)
   20ac0:	00cfff04 	movi	r3,16380
   20ac4:	1885c83a 	sub	r2,r3,r2
}
   20ac8:	e037883a 	mov	sp,fp
   20acc:	df000017 	ldw	fp,0(sp)
   20ad0:	dec00104 	addi	sp,sp,4
   20ad4:	f800283a 	ret

00020ad8 <vListInitialise>:
/*-----------------------------------------------------------
 * PUBLIC LIST API documented in list.h
 *----------------------------------------------------------*/

void vListInitialise( List_t * const pxList )
{
   20ad8:	defffe04 	addi	sp,sp,-8
   20adc:	df000115 	stw	fp,4(sp)
   20ae0:	df000104 	addi	fp,sp,4
   20ae4:	e13fff15 	stw	r4,-4(fp)
	/* The list structure contains a list item which is used to mark the
	end of the list.  To initialise the list the list end is inserted
	as the only list entry. */
	pxList->pxIndex = ( ListItem_t * ) &( pxList->xListEnd );			/*lint !e826 !e740 The mini list structure is used as the list end to save RAM.  This is checked and valid. */
   20ae8:	e0bfff17 	ldw	r2,-4(fp)
   20aec:	10c00204 	addi	r3,r2,8
   20af0:	e0bfff17 	ldw	r2,-4(fp)
   20af4:	10c00115 	stw	r3,4(r2)

	/* The list end value is the highest possible value in the list to
	ensure it remains at the end of the list. */
	pxList->xListEnd.xItemValue = portMAX_DELAY;
   20af8:	e0bfff17 	ldw	r2,-4(fp)
   20afc:	00ffffc4 	movi	r3,-1
   20b00:	10c00215 	stw	r3,8(r2)

	/* The list end next and previous pointers point to itself so we know
	when the list is empty. */
	pxList->xListEnd.pxNext = ( ListItem_t * ) &( pxList->xListEnd );	/*lint !e826 !e740 The mini list structure is used as the list end to save RAM.  This is checked and valid. */
   20b04:	e0bfff17 	ldw	r2,-4(fp)
   20b08:	10c00204 	addi	r3,r2,8
   20b0c:	e0bfff17 	ldw	r2,-4(fp)
   20b10:	10c00315 	stw	r3,12(r2)
	pxList->xListEnd.pxPrevious = ( ListItem_t * ) &( pxList->xListEnd );/*lint !e826 !e740 The mini list structure is used as the list end to save RAM.  This is checked and valid. */
   20b14:	e0bfff17 	ldw	r2,-4(fp)
   20b18:	10c00204 	addi	r3,r2,8
   20b1c:	e0bfff17 	ldw	r2,-4(fp)
   20b20:	10c00415 	stw	r3,16(r2)

	pxList->uxNumberOfItems = ( UBaseType_t ) 0U;
   20b24:	e0bfff17 	ldw	r2,-4(fp)
   20b28:	10000015 	stw	zero,0(r2)

	/* Write known values into the list if
	configUSE_LIST_DATA_INTEGRITY_CHECK_BYTES is set to 1. */
	listSET_LIST_INTEGRITY_CHECK_1_VALUE( pxList );
	listSET_LIST_INTEGRITY_CHECK_2_VALUE( pxList );
}
   20b2c:	0001883a 	nop
   20b30:	e037883a 	mov	sp,fp
   20b34:	df000017 	ldw	fp,0(sp)
   20b38:	dec00104 	addi	sp,sp,4
   20b3c:	f800283a 	ret

00020b40 <vListInitialiseItem>:
/*-----------------------------------------------------------*/

void vListInitialiseItem( ListItem_t * const pxItem )
{
   20b40:	defffe04 	addi	sp,sp,-8
   20b44:	df000115 	stw	fp,4(sp)
   20b48:	df000104 	addi	fp,sp,4
   20b4c:	e13fff15 	stw	r4,-4(fp)
	/* Make sure the list item is not recorded as being on a list. */
	pxItem->pvContainer = NULL;
   20b50:	e0bfff17 	ldw	r2,-4(fp)
   20b54:	10000415 	stw	zero,16(r2)

	/* Write known values into the list item if
	configUSE_LIST_DATA_INTEGRITY_CHECK_BYTES is set to 1. */
	listSET_FIRST_LIST_ITEM_INTEGRITY_CHECK_VALUE( pxItem );
	listSET_SECOND_LIST_ITEM_INTEGRITY_CHECK_VALUE( pxItem );
}
   20b58:	0001883a 	nop
   20b5c:	e037883a 	mov	sp,fp
   20b60:	df000017 	ldw	fp,0(sp)
   20b64:	dec00104 	addi	sp,sp,4
   20b68:	f800283a 	ret

00020b6c <vListInsertEnd>:
/*-----------------------------------------------------------*/

void vListInsertEnd( List_t * const pxList, ListItem_t * const pxNewListItem )
{
   20b6c:	defffc04 	addi	sp,sp,-16
   20b70:	df000315 	stw	fp,12(sp)
   20b74:	df000304 	addi	fp,sp,12
   20b78:	e13ffe15 	stw	r4,-8(fp)
   20b7c:	e17fff15 	stw	r5,-4(fp)
ListItem_t * const pxIndex = pxList->pxIndex;
   20b80:	e0bffe17 	ldw	r2,-8(fp)
   20b84:	10800117 	ldw	r2,4(r2)
   20b88:	e0bffd15 	stw	r2,-12(fp)
	listTEST_LIST_ITEM_INTEGRITY( pxNewListItem );

	/* Insert a new list item into pxList, but rather than sort the list,
	makes the new list item the last item to be removed by a call to
	listGET_OWNER_OF_NEXT_ENTRY(). */
	pxNewListItem->pxNext = pxIndex;
   20b8c:	e0bfff17 	ldw	r2,-4(fp)
   20b90:	e0fffd17 	ldw	r3,-12(fp)
   20b94:	10c00115 	stw	r3,4(r2)
	pxNewListItem->pxPrevious = pxIndex->pxPrevious;
   20b98:	e0bffd17 	ldw	r2,-12(fp)
   20b9c:	10c00217 	ldw	r3,8(r2)
   20ba0:	e0bfff17 	ldw	r2,-4(fp)
   20ba4:	10c00215 	stw	r3,8(r2)

	/* Only used during decision coverage testing. */
	mtCOVERAGE_TEST_DELAY();

	pxIndex->pxPrevious->pxNext = pxNewListItem;
   20ba8:	e0bffd17 	ldw	r2,-12(fp)
   20bac:	10800217 	ldw	r2,8(r2)
   20bb0:	e0ffff17 	ldw	r3,-4(fp)
   20bb4:	10c00115 	stw	r3,4(r2)
	pxIndex->pxPrevious = pxNewListItem;
   20bb8:	e0bffd17 	ldw	r2,-12(fp)
   20bbc:	e0ffff17 	ldw	r3,-4(fp)
   20bc0:	10c00215 	stw	r3,8(r2)

	/* Remember which list the item is in. */
	pxNewListItem->pvContainer = ( void * ) pxList;
   20bc4:	e0bfff17 	ldw	r2,-4(fp)
   20bc8:	e0fffe17 	ldw	r3,-8(fp)
   20bcc:	10c00415 	stw	r3,16(r2)

	( pxList->uxNumberOfItems )++;
   20bd0:	e0bffe17 	ldw	r2,-8(fp)
   20bd4:	10800017 	ldw	r2,0(r2)
   20bd8:	10c00044 	addi	r3,r2,1
   20bdc:	e0bffe17 	ldw	r2,-8(fp)
   20be0:	10c00015 	stw	r3,0(r2)
}
   20be4:	0001883a 	nop
   20be8:	e037883a 	mov	sp,fp
   20bec:	df000017 	ldw	fp,0(sp)
   20bf0:	dec00104 	addi	sp,sp,4
   20bf4:	f800283a 	ret

00020bf8 <vListInsert>:
/*-----------------------------------------------------------*/

void vListInsert( List_t * const pxList, ListItem_t * const pxNewListItem )
{
   20bf8:	defffb04 	addi	sp,sp,-20
   20bfc:	df000415 	stw	fp,16(sp)
   20c00:	df000404 	addi	fp,sp,16
   20c04:	e13ffe15 	stw	r4,-8(fp)
   20c08:	e17fff15 	stw	r5,-4(fp)
ListItem_t *pxIterator;
const TickType_t xValueOfInsertion = pxNewListItem->xItemValue;
   20c0c:	e0bfff17 	ldw	r2,-4(fp)
   20c10:	10800017 	ldw	r2,0(r2)
   20c14:	e0bffd15 	stw	r2,-12(fp)
	new list item should be placed after it.  This ensures that TCB's which are
	stored in ready lists (all of which have the same xItemValue value) get a
	share of the CPU.  However, if the xItemValue is the same as the back marker
	the iteration loop below will not end.  Therefore the value is checked
	first, and the algorithm slightly modified if necessary. */
	if( xValueOfInsertion == portMAX_DELAY )
   20c18:	e0bffd17 	ldw	r2,-12(fp)
   20c1c:	10bfffd8 	cmpnei	r2,r2,-1
   20c20:	1000041e 	bne	r2,zero,20c34 <vListInsert+0x3c>
	{
		pxIterator = pxList->xListEnd.pxPrevious;
   20c24:	e0bffe17 	ldw	r2,-8(fp)
   20c28:	10800417 	ldw	r2,16(r2)
   20c2c:	e0bffc15 	stw	r2,-16(fp)
   20c30:	00000c06 	br	20c64 <vListInsert+0x6c>
			4) Using a queue or semaphore before it has been initialised or
			   before the scheduler has been started (are interrupts firing
			   before vTaskStartScheduler() has been called?).
		**********************************************************************/

		for( pxIterator = ( ListItem_t * ) &( pxList->xListEnd ); pxIterator->pxNext->xItemValue <= xValueOfInsertion; pxIterator = pxIterator->pxNext ) /*lint !e826 !e740 The mini list structure is used as the list end to save RAM.  This is checked and valid. */
   20c34:	e0bffe17 	ldw	r2,-8(fp)
   20c38:	10800204 	addi	r2,r2,8
   20c3c:	e0bffc15 	stw	r2,-16(fp)
   20c40:	00000306 	br	20c50 <vListInsert+0x58>
   20c44:	e0bffc17 	ldw	r2,-16(fp)
   20c48:	10800117 	ldw	r2,4(r2)
   20c4c:	e0bffc15 	stw	r2,-16(fp)
   20c50:	e0bffc17 	ldw	r2,-16(fp)
   20c54:	10800117 	ldw	r2,4(r2)
   20c58:	10800017 	ldw	r2,0(r2)
   20c5c:	e0fffd17 	ldw	r3,-12(fp)
   20c60:	18bff82e 	bgeu	r3,r2,20c44 <__reset+0xfff80c44>
			/* There is nothing to do here, just iterating to the wanted
			insertion position. */
		}
	}

	pxNewListItem->pxNext = pxIterator->pxNext;
   20c64:	e0bffc17 	ldw	r2,-16(fp)
   20c68:	10c00117 	ldw	r3,4(r2)
   20c6c:	e0bfff17 	ldw	r2,-4(fp)
   20c70:	10c00115 	stw	r3,4(r2)
	pxNewListItem->pxNext->pxPrevious = pxNewListItem;
   20c74:	e0bfff17 	ldw	r2,-4(fp)
   20c78:	10800117 	ldw	r2,4(r2)
   20c7c:	e0ffff17 	ldw	r3,-4(fp)
   20c80:	10c00215 	stw	r3,8(r2)
	pxNewListItem->pxPrevious = pxIterator;
   20c84:	e0bfff17 	ldw	r2,-4(fp)
   20c88:	e0fffc17 	ldw	r3,-16(fp)
   20c8c:	10c00215 	stw	r3,8(r2)
	pxIterator->pxNext = pxNewListItem;
   20c90:	e0bffc17 	ldw	r2,-16(fp)
   20c94:	e0ffff17 	ldw	r3,-4(fp)
   20c98:	10c00115 	stw	r3,4(r2)

	/* Remember which list the item is in.  This allows fast removal of the
	item later. */
	pxNewListItem->pvContainer = ( void * ) pxList;
   20c9c:	e0bfff17 	ldw	r2,-4(fp)
   20ca0:	e0fffe17 	ldw	r3,-8(fp)
   20ca4:	10c00415 	stw	r3,16(r2)

	( pxList->uxNumberOfItems )++;
   20ca8:	e0bffe17 	ldw	r2,-8(fp)
   20cac:	10800017 	ldw	r2,0(r2)
   20cb0:	10c00044 	addi	r3,r2,1
   20cb4:	e0bffe17 	ldw	r2,-8(fp)
   20cb8:	10c00015 	stw	r3,0(r2)
}
   20cbc:	0001883a 	nop
   20cc0:	e037883a 	mov	sp,fp
   20cc4:	df000017 	ldw	fp,0(sp)
   20cc8:	dec00104 	addi	sp,sp,4
   20ccc:	f800283a 	ret

00020cd0 <uxListRemove>:
/*-----------------------------------------------------------*/

UBaseType_t uxListRemove( ListItem_t * const pxItemToRemove )
{
   20cd0:	defffd04 	addi	sp,sp,-12
   20cd4:	df000215 	stw	fp,8(sp)
   20cd8:	df000204 	addi	fp,sp,8
   20cdc:	e13fff15 	stw	r4,-4(fp)
/* The list item knows which list it is in.  Obtain the list from the list
item. */
List_t * const pxList = ( List_t * ) pxItemToRemove->pvContainer;
   20ce0:	e0bfff17 	ldw	r2,-4(fp)
   20ce4:	10800417 	ldw	r2,16(r2)
   20ce8:	e0bffe15 	stw	r2,-8(fp)

	pxItemToRemove->pxNext->pxPrevious = pxItemToRemove->pxPrevious;
   20cec:	e0bfff17 	ldw	r2,-4(fp)
   20cf0:	10800117 	ldw	r2,4(r2)
   20cf4:	e0ffff17 	ldw	r3,-4(fp)
   20cf8:	18c00217 	ldw	r3,8(r3)
   20cfc:	10c00215 	stw	r3,8(r2)
	pxItemToRemove->pxPrevious->pxNext = pxItemToRemove->pxNext;
   20d00:	e0bfff17 	ldw	r2,-4(fp)
   20d04:	10800217 	ldw	r2,8(r2)
   20d08:	e0ffff17 	ldw	r3,-4(fp)
   20d0c:	18c00117 	ldw	r3,4(r3)
   20d10:	10c00115 	stw	r3,4(r2)

	/* Only used during decision coverage testing. */
	mtCOVERAGE_TEST_DELAY();

	/* Make sure the index is left pointing to a valid item. */
	if( pxList->pxIndex == pxItemToRemove )
   20d14:	e0bffe17 	ldw	r2,-8(fp)
   20d18:	10c00117 	ldw	r3,4(r2)
   20d1c:	e0bfff17 	ldw	r2,-4(fp)
   20d20:	1880041e 	bne	r3,r2,20d34 <uxListRemove+0x64>
	{
		pxList->pxIndex = pxItemToRemove->pxPrevious;
   20d24:	e0bfff17 	ldw	r2,-4(fp)
   20d28:	10c00217 	ldw	r3,8(r2)
   20d2c:	e0bffe17 	ldw	r2,-8(fp)
   20d30:	10c00115 	stw	r3,4(r2)
	else
	{
		mtCOVERAGE_TEST_MARKER();
	}

	pxItemToRemove->pvContainer = NULL;
   20d34:	e0bfff17 	ldw	r2,-4(fp)
   20d38:	10000415 	stw	zero,16(r2)
	( pxList->uxNumberOfItems )--;
   20d3c:	e0bffe17 	ldw	r2,-8(fp)
   20d40:	10800017 	ldw	r2,0(r2)
   20d44:	10ffffc4 	addi	r3,r2,-1
   20d48:	e0bffe17 	ldw	r2,-8(fp)
   20d4c:	10c00015 	stw	r3,0(r2)

	return pxList->uxNumberOfItems;
   20d50:	e0bffe17 	ldw	r2,-8(fp)
   20d54:	10800017 	ldw	r2,0(r2)
}
   20d58:	e037883a 	mov	sp,fp
   20d5c:	df000017 	ldw	fp,0(sp)
   20d60:	dec00104 	addi	sp,sp,4
   20d64:	f800283a 	ret

00020d68 <prvReadGp>:
void vPortSysTickHandler( void * context, alt_u32 id );

/*-----------------------------------------------------------*/

static void prvReadGp( uint32_t *ulValue )
{
   20d68:	defffe04 	addi	sp,sp,-8
   20d6c:	df000115 	stw	fp,4(sp)
   20d70:	df000104 	addi	fp,sp,4
   20d74:	e13fff15 	stw	r4,-4(fp)
	asm( "stw gp, (%0)" :: "r"(ulValue) );
   20d78:	e0bfff17 	ldw	r2,-4(fp)
   20d7c:	16800015 	stw	gp,0(r2)
}
   20d80:	0001883a 	nop
   20d84:	e037883a 	mov	sp,fp
   20d88:	df000017 	ldw	fp,0(sp)
   20d8c:	dec00104 	addi	sp,sp,4
   20d90:	f800283a 	ret

00020d94 <pxPortInitialiseStack>:

/* 
 * See header file for description. 
 */
StackType_t *pxPortInitialiseStack( StackType_t *pxTopOfStack, TaskFunction_t pxCode, void *pvParameters )
{    
   20d94:	defff904 	addi	sp,sp,-28
   20d98:	dfc00615 	stw	ra,24(sp)
   20d9c:	df000515 	stw	fp,20(sp)
   20da0:	df000504 	addi	fp,sp,20
   20da4:	e13ffd15 	stw	r4,-12(fp)
   20da8:	e17ffe15 	stw	r5,-8(fp)
   20dac:	e1bfff15 	stw	r6,-4(fp)
StackType_t *pxFramePointer = pxTopOfStack - 1;
   20db0:	e0bffd17 	ldw	r2,-12(fp)
   20db4:	10bfff04 	addi	r2,r2,-4
   20db8:	e0bffb15 	stw	r2,-20(fp)
StackType_t xGlobalPointer;

    prvReadGp( &xGlobalPointer ); 
   20dbc:	e0bffc04 	addi	r2,fp,-16
   20dc0:	1009883a 	mov	r4,r2
   20dc4:	0020d680 	call	20d68 <prvReadGp>

    /* End of stack marker. */
    *pxTopOfStack = 0xdeadbeef;
   20dc8:	e0fffd17 	ldw	r3,-12(fp)
   20dcc:	00b7abb4 	movhi	r2,57006
   20dd0:	10afbbc4 	addi	r2,r2,-16657
   20dd4:	18800015 	stw	r2,0(r3)
    pxTopOfStack--;
   20dd8:	e0bffd17 	ldw	r2,-12(fp)
   20ddc:	10bfff04 	addi	r2,r2,-4
   20de0:	e0bffd15 	stw	r2,-12(fp)
    
    *pxTopOfStack = ( StackType_t ) pxFramePointer; 
   20de4:	e0fffb17 	ldw	r3,-20(fp)
   20de8:	e0bffd17 	ldw	r2,-12(fp)
   20dec:	10c00015 	stw	r3,0(r2)
    pxTopOfStack--;
   20df0:	e0bffd17 	ldw	r2,-12(fp)
   20df4:	10bfff04 	addi	r2,r2,-4
   20df8:	e0bffd15 	stw	r2,-12(fp)
    
    *pxTopOfStack = xGlobalPointer; 
   20dfc:	e0fffc17 	ldw	r3,-16(fp)
   20e00:	e0bffd17 	ldw	r2,-12(fp)
   20e04:	10c00015 	stw	r3,0(r2)
    
    /* Space for R23 to R16. */
    pxTopOfStack -= 9;
   20e08:	e0bffd17 	ldw	r2,-12(fp)
   20e0c:	10bff704 	addi	r2,r2,-36
   20e10:	e0bffd15 	stw	r2,-12(fp)

    *pxTopOfStack = ( StackType_t ) pxCode; 
   20e14:	e0fffe17 	ldw	r3,-8(fp)
   20e18:	e0bffd17 	ldw	r2,-12(fp)
   20e1c:	10c00015 	stw	r3,0(r2)
    pxTopOfStack--;
   20e20:	e0bffd17 	ldw	r2,-12(fp)
   20e24:	10bfff04 	addi	r2,r2,-4
   20e28:	e0bffd15 	stw	r2,-12(fp)

    *pxTopOfStack = portINITIAL_ESTATUS; 
   20e2c:	e0bffd17 	ldw	r2,-12(fp)
   20e30:	00c00044 	movi	r3,1
   20e34:	10c00015 	stw	r3,0(r2)

    /* Space for R15 to R5. */    
    pxTopOfStack -= 12;
   20e38:	e0bffd17 	ldw	r2,-12(fp)
   20e3c:	10bff404 	addi	r2,r2,-48
   20e40:	e0bffd15 	stw	r2,-12(fp)
    
    *pxTopOfStack = ( StackType_t ) pvParameters; 
   20e44:	e0ffff17 	ldw	r3,-4(fp)
   20e48:	e0bffd17 	ldw	r2,-12(fp)
   20e4c:	10c00015 	stw	r3,0(r2)

    /* Space for R3 to R1, muldiv and RA. */
    pxTopOfStack -= 5;
   20e50:	e0bffd17 	ldw	r2,-12(fp)
   20e54:	10bffb04 	addi	r2,r2,-20
   20e58:	e0bffd15 	stw	r2,-12(fp)
    
    return pxTopOfStack;
   20e5c:	e0bffd17 	ldw	r2,-12(fp)
}
   20e60:	e037883a 	mov	sp,fp
   20e64:	dfc00117 	ldw	ra,4(sp)
   20e68:	df000017 	ldw	fp,0(sp)
   20e6c:	dec00204 	addi	sp,sp,8
   20e70:	f800283a 	ret

00020e74 <xPortStartScheduler>:

/* 
 * See header file for description. 
 */
BaseType_t xPortStartScheduler( void )
{
   20e74:	defffe04 	addi	sp,sp,-8
   20e78:	dfc00115 	stw	ra,4(sp)
   20e7c:	df000015 	stw	fp,0(sp)
   20e80:	d839883a 	mov	fp,sp
	/* Start the timer that generates the tick ISR.  Interrupts are disabled
	here already. */
	prvSetupTimerInterrupt();
   20e84:	0020ecc0 	call	20ecc <prvSetupTimerInterrupt>
   20e88:	008000b4 	movhi	r2,2
	
	/* Start the first task. */
    asm volatile (  " movia r2, restore_sp_from_pxCurrentTCB        \n"
   20e8c:	10803104 	addi	r2,r2,196
   20e90:	1000683a 	jmp	r2
                    " jmp r2                                          " );

	/* Should not get here! */
	return 0;
   20e94:	0005883a 	mov	r2,zero
}
   20e98:	e037883a 	mov	sp,fp
   20e9c:	dfc00117 	ldw	ra,4(sp)
   20ea0:	df000017 	ldw	fp,0(sp)
   20ea4:	dec00204 	addi	sp,sp,8
   20ea8:	f800283a 	ret

00020eac <vPortEndScheduler>:
/*-----------------------------------------------------------*/

void vPortEndScheduler( void )
{
   20eac:	deffff04 	addi	sp,sp,-4
   20eb0:	df000015 	stw	fp,0(sp)
   20eb4:	d839883a 	mov	fp,sp
	/* It is unlikely that the NIOS2 port will require this function as there
	is nothing to return to.  */
}
   20eb8:	0001883a 	nop
   20ebc:	e037883a 	mov	sp,fp
   20ec0:	df000017 	ldw	fp,0(sp)
   20ec4:	dec00104 	addi	sp,sp,4
   20ec8:	f800283a 	ret

00020ecc <prvSetupTimerInterrupt>:
/*
 * Setup the systick timer to generate the tick interrupts at the required
 * frequency.
 */
void prvSetupTimerInterrupt( void )
{
   20ecc:	defffe04 	addi	sp,sp,-8
   20ed0:	dfc00115 	stw	ra,4(sp)
   20ed4:	df000015 	stw	fp,0(sp)
   20ed8:	d839883a 	mov	fp,sp
	/* Try to register the interrupt handler. */
	if ( -EINVAL == alt_irq_register( TIMER_0_NIOS2_IRQ, 0x0, vPortSysTickHandler ) )
   20edc:	018000b4 	movhi	r6,2
   20ee0:	3183d504 	addi	r6,r6,3924
   20ee4:	000b883a 	mov	r5,zero
   20ee8:	01000084 	movi	r4,2
   20eec:	0020f9c0 	call	20f9c <alt_irq_register>
   20ef0:	10bffa98 	cmpnei	r2,r2,-22
   20ef4:	1000021e 	bne	r2,zero,20f00 <prvSetupTimerInterrupt+0x34>
	{ 
		/* Failed to install the Interrupt Handler. */
		asm( "break" );
   20ef8:	003da03a 	break	0
   20efc:	00000c06 	br	20f30 <prvSetupTimerInterrupt+0x64>
	}
	else
	{
		/* Configure SysTick to interrupt at the requested rate. */
		IOWR_ALTERA_AVALON_TIMER_CONTROL( TIMER_0_NIOS2_BASE, ALTERA_AVALON_TIMER_CONTROL_STOP_MSK );
   20f00:	00c00204 	movi	r3,8
   20f04:	00800104 	movi	r2,4
   20f08:	10c00035 	stwio	r3,0(r2)
		IOWR_ALTERA_AVALON_TIMER_PERIODL( TIMER_0_NIOS2_BASE, ( configCPU_CLOCK_HZ / configTICK_RATE_HZ ) & 0xFFFF );
   20f0c:	00f42414 	movui	r3,53392
   20f10:	00800204 	movi	r2,8
   20f14:	10c00035 	stwio	r3,0(r2)
		IOWR_ALTERA_AVALON_TIMER_PERIODH( TIMER_0_NIOS2_BASE, ( configCPU_CLOCK_HZ / configTICK_RATE_HZ ) >> 16 );
   20f18:	00c000c4 	movi	r3,3
   20f1c:	00800304 	movi	r2,12
   20f20:	10c00035 	stwio	r3,0(r2)
		IOWR_ALTERA_AVALON_TIMER_CONTROL( TIMER_0_NIOS2_BASE, ALTERA_AVALON_TIMER_CONTROL_CONT_MSK | ALTERA_AVALON_TIMER_CONTROL_START_MSK | ALTERA_AVALON_TIMER_CONTROL_ITO_MSK );
   20f24:	00c001c4 	movi	r3,7
   20f28:	00800104 	movi	r2,4
   20f2c:	10c00035 	stwio	r3,0(r2)
	} 

	/* Clear any already pending interrupts generated by the Timer. */
	IOWR_ALTERA_AVALON_TIMER_STATUS( TIMER_0_NIOS2_BASE, ~ALTERA_AVALON_TIMER_STATUS_TO_MSK );
   20f30:	00bfff84 	movi	r2,-2
   20f34:	0007883a 	mov	r3,zero
   20f38:	18800035 	stwio	r2,0(r3)
}
   20f3c:	0001883a 	nop
   20f40:	e037883a 	mov	sp,fp
   20f44:	dfc00117 	ldw	ra,4(sp)
   20f48:	df000017 	ldw	fp,0(sp)
   20f4c:	dec00204 	addi	sp,sp,8
   20f50:	f800283a 	ret

00020f54 <vPortSysTickHandler>:
/*-----------------------------------------------------------*/

void vPortSysTickHandler( void * context, alt_u32 id )
{
   20f54:	defffc04 	addi	sp,sp,-16
   20f58:	dfc00315 	stw	ra,12(sp)
   20f5c:	df000215 	stw	fp,8(sp)
   20f60:	df000204 	addi	fp,sp,8
   20f64:	e13ffe15 	stw	r4,-8(fp)
   20f68:	e17fff15 	stw	r5,-4(fp)
	/* Increment the kernel tick. */
	if( xTaskIncrementTick() != pdFALSE )
   20f6c:	00229580 	call	22958 <xTaskIncrementTick>
   20f70:	10000126 	beq	r2,zero,20f78 <vPortSysTickHandler+0x24>
	{
        vTaskSwitchContext();
   20f74:	0022b1c0 	call	22b1c <vTaskSwitchContext>
	}
		
	/* Clear the interrupt. */
	IOWR_ALTERA_AVALON_TIMER_STATUS( TIMER_0_NIOS2_BASE, ~ALTERA_AVALON_TIMER_STATUS_TO_MSK );
   20f78:	00bfff84 	movi	r2,-2
   20f7c:	0007883a 	mov	r3,zero
   20f80:	18800035 	stwio	r2,0(r3)
}
   20f84:	0001883a 	nop
   20f88:	e037883a 	mov	sp,fp
   20f8c:	dfc00117 	ldw	ra,4(sp)
   20f90:	df000017 	ldw	fp,0(sp)
   20f94:	dec00204 	addi	sp,sp,8
   20f98:	f800283a 	ret

00020f9c <alt_irq_register>:
 * when it is registered. Interrupts should only be enabled after the FreeRTOS.org
 * kernel has its scheduler started so that contexts are saved and switched 
 * correctly.
 */
int alt_irq_register( alt_u32 id, void* context, void (*handler)(void*, alt_u32) )
{
   20f9c:	defff104 	addi	sp,sp,-60
   20fa0:	df000e15 	stw	fp,56(sp)
   20fa4:	df000e04 	addi	fp,sp,56
   20fa8:	e13ffd15 	stw	r4,-12(fp)
   20fac:	e17ffe15 	stw	r5,-8(fp)
   20fb0:	e1bfff15 	stw	r6,-4(fp)
	int rc = -EINVAL;  
   20fb4:	00bffa84 	movi	r2,-22
   20fb8:	e0bff215 	stw	r2,-56(fp)
	alt_irq_context status;

	if (id < ALT_NIRQ)
   20fbc:	e0bffd17 	ldw	r2,-12(fp)
   20fc0:	10800828 	cmpgeui	r2,r2,32
   20fc4:	10004c1e 	bne	r2,zero,210f8 <alt_irq_register+0x15c>
static ALT_INLINE alt_irq_context ALT_ALWAYS_INLINE 
       alt_irq_disable_all (void)
{
  alt_irq_context context;

  NIOS2_READ_STATUS (context);
   20fc8:	0005303a 	rdctl	r2,status
   20fcc:	e0bff615 	stw	r2,-40(fp)

  NIOS2_WRITE_STATUS (context & ~NIOS2_STATUS_PIE_MSK);
   20fd0:	e0fff617 	ldw	r3,-40(fp)
   20fd4:	00bfff84 	movi	r2,-2
   20fd8:	1884703a 	and	r2,r3,r2
   20fdc:	1001703a 	wrctl	status,r2
  
  return context;
   20fe0:	e0bff617 	ldw	r2,-40(fp)
		 * interrupts are disabled while the handler tables are updated to ensure
		 * that an interrupt doesn't occur while the tables are in an inconsistent
		 * state.
		 */
	
		status = alt_irq_disable_all ();
   20fe4:	e0bff415 	stw	r2,-48(fp)
	
		alt_irq[id].handler = handler;
   20fe8:	00800134 	movhi	r2,4
   20fec:	10a3c604 	addi	r2,r2,-28904
   20ff0:	e0fffd17 	ldw	r3,-12(fp)
   20ff4:	180690fa 	slli	r3,r3,3
   20ff8:	10c5883a 	add	r2,r2,r3
   20ffc:	e0ffff17 	ldw	r3,-4(fp)
   21000:	10c00015 	stw	r3,0(r2)
		alt_irq[id].context = context;
   21004:	00800134 	movhi	r2,4
   21008:	10a3c604 	addi	r2,r2,-28904
   2100c:	e0fffd17 	ldw	r3,-12(fp)
   21010:	180690fa 	slli	r3,r3,3
   21014:	10c5883a 	add	r2,r2,r3
   21018:	10800104 	addi	r2,r2,4
   2101c:	e0fffe17 	ldw	r3,-8(fp)
   21020:	10c00015 	stw	r3,0(r2)
	
		rc = (handler) ? alt_irq_enable (id): alt_irq_disable (id);
   21024:	e0bfff17 	ldw	r2,-4(fp)
   21028:	10001926 	beq	r2,zero,21090 <alt_irq_register+0xf4>
   2102c:	e0bffd17 	ldw	r2,-12(fp)
   21030:	e0bff315 	stw	r2,-52(fp)
static ALT_INLINE alt_irq_context ALT_ALWAYS_INLINE 
       alt_irq_disable_all (void)
{
  alt_irq_context context;

  NIOS2_READ_STATUS (context);
   21034:	0005303a 	rdctl	r2,status
   21038:	e0bff715 	stw	r2,-36(fp)

  NIOS2_WRITE_STATUS (context & ~NIOS2_STATUS_PIE_MSK);
   2103c:	e0fff717 	ldw	r3,-36(fp)
   21040:	00bfff84 	movi	r2,-2
   21044:	1884703a 	and	r2,r3,r2
   21048:	1001703a 	wrctl	status,r2
  
  return context;
   2104c:	e0bff717 	ldw	r2,-36(fp)
static ALT_INLINE int ALT_ALWAYS_INLINE alt_irq_enable (alt_u32 id)
{
  alt_irq_context  status;
  extern volatile alt_u32 alt_irq_active;

  status = alt_irq_disable_all ();
   21050:	e0bff815 	stw	r2,-32(fp)

  alt_irq_active |= (1 << id);
   21054:	00c00044 	movi	r3,1
   21058:	e0bff317 	ldw	r2,-52(fp)
   2105c:	1884983a 	sll	r2,r3,r2
   21060:	1007883a 	mov	r3,r2
   21064:	d0a03717 	ldw	r2,-32548(gp)
   21068:	1884b03a 	or	r2,r3,r2
   2106c:	d0a03715 	stw	r2,-32548(gp)
  NIOS2_WRITE_IENABLE (alt_irq_active);
   21070:	d0a03717 	ldw	r2,-32548(gp)
   21074:	100170fa 	wrctl	ienable,r2
   21078:	e0bff817 	ldw	r2,-32(fp)
   2107c:	e0bff915 	stw	r2,-28(fp)
  status &= ~NIOS2_STATUS_PIE_MSK;
  status |= (context & NIOS2_STATUS_PIE_MSK);
  
  NIOS2_WRITE_STATUS (status);
#else
  NIOS2_WRITE_STATUS (context);
   21080:	e0bff917 	ldw	r2,-28(fp)
   21084:	1001703a 	wrctl	status,r2

  alt_irq_enable_all(status);

  return 0;
   21088:	0005883a 	mov	r2,zero
   2108c:	00001906 	br	210f4 <alt_irq_register+0x158>
   21090:	e0bffd17 	ldw	r2,-12(fp)
   21094:	e0bff515 	stw	r2,-44(fp)
static ALT_INLINE alt_irq_context ALT_ALWAYS_INLINE 
       alt_irq_disable_all (void)
{
  alt_irq_context context;

  NIOS2_READ_STATUS (context);
   21098:	0005303a 	rdctl	r2,status
   2109c:	e0bffa15 	stw	r2,-24(fp)

  NIOS2_WRITE_STATUS (context & ~NIOS2_STATUS_PIE_MSK);
   210a0:	e0fffa17 	ldw	r3,-24(fp)
   210a4:	00bfff84 	movi	r2,-2
   210a8:	1884703a 	and	r2,r3,r2
   210ac:	1001703a 	wrctl	status,r2
  
  return context;
   210b0:	e0bffa17 	ldw	r2,-24(fp)
static ALT_INLINE int ALT_ALWAYS_INLINE alt_irq_disable (alt_u32 id)
{
  alt_irq_context  status;
  extern volatile alt_u32 alt_irq_active;

  status = alt_irq_disable_all ();
   210b4:	e0bffb15 	stw	r2,-20(fp)

  alt_irq_active &= ~(1 << id);
   210b8:	00c00044 	movi	r3,1
   210bc:	e0bff517 	ldw	r2,-44(fp)
   210c0:	1884983a 	sll	r2,r3,r2
   210c4:	0084303a 	nor	r2,zero,r2
   210c8:	1007883a 	mov	r3,r2
   210cc:	d0a03717 	ldw	r2,-32548(gp)
   210d0:	1884703a 	and	r2,r3,r2
   210d4:	d0a03715 	stw	r2,-32548(gp)
  NIOS2_WRITE_IENABLE (alt_irq_active);
   210d8:	d0a03717 	ldw	r2,-32548(gp)
   210dc:	100170fa 	wrctl	ienable,r2
   210e0:	e0bffb17 	ldw	r2,-20(fp)
   210e4:	e0bffc15 	stw	r2,-16(fp)
  status &= ~NIOS2_STATUS_PIE_MSK;
  status |= (context & NIOS2_STATUS_PIE_MSK);
  
  NIOS2_WRITE_STATUS (status);
#else
  NIOS2_WRITE_STATUS (context);
   210e8:	e0bffc17 	ldw	r2,-16(fp)
   210ec:	1001703a 	wrctl	status,r2

  alt_irq_enable_all(status);

  return 0;
   210f0:	0005883a 	mov	r2,zero
   210f4:	e0bff215 	stw	r2,-56(fp)
	
		/* alt_irq_enable_all(status); This line is removed to prevent the interrupt from being immediately enabled. */
	}
    
	return rc; 
   210f8:	e0bff217 	ldw	r2,-56(fp)
}
   210fc:	e037883a 	mov	sp,fp
   21100:	df000017 	ldw	fp,0(sp)
   21104:	dec00104 	addi	sp,sp,4
   21108:	f800283a 	ret

0002110c <xQueueGenericReset>:
	}														\
	taskEXIT_CRITICAL()
/*-----------------------------------------------------------*/

BaseType_t xQueueGenericReset( QueueHandle_t xQueue, BaseType_t xNewQueue )
{
   2110c:	defffb04 	addi	sp,sp,-20
   21110:	dfc00415 	stw	ra,16(sp)
   21114:	df000315 	stw	fp,12(sp)
   21118:	df000304 	addi	fp,sp,12
   2111c:	e13ffe15 	stw	r4,-8(fp)
   21120:	e17fff15 	stw	r5,-4(fp)
Queue_t * const pxQueue = ( Queue_t * ) xQueue;
   21124:	e0bffe17 	ldw	r2,-8(fp)
   21128:	e0bffd15 	stw	r2,-12(fp)

	configASSERT( pxQueue );

	taskENTER_CRITICAL();
   2112c:	002311c0 	call	2311c <vTaskEnterCritical>
	{
		pxQueue->pcTail = pxQueue->pcHead + ( pxQueue->uxLength * pxQueue->uxItemSize );
   21130:	e0bffd17 	ldw	r2,-12(fp)
   21134:	10c00017 	ldw	r3,0(r2)
   21138:	e0bffd17 	ldw	r2,-12(fp)
   2113c:	11000f17 	ldw	r4,60(r2)
   21140:	e0bffd17 	ldw	r2,-12(fp)
   21144:	10801017 	ldw	r2,64(r2)
   21148:	2085383a 	mul	r2,r4,r2
   2114c:	1887883a 	add	r3,r3,r2
   21150:	e0bffd17 	ldw	r2,-12(fp)
   21154:	10c00115 	stw	r3,4(r2)
		pxQueue->uxMessagesWaiting = ( UBaseType_t ) 0U;
   21158:	e0bffd17 	ldw	r2,-12(fp)
   2115c:	10000e15 	stw	zero,56(r2)
		pxQueue->pcWriteTo = pxQueue->pcHead;
   21160:	e0bffd17 	ldw	r2,-12(fp)
   21164:	10c00017 	ldw	r3,0(r2)
   21168:	e0bffd17 	ldw	r2,-12(fp)
   2116c:	10c00215 	stw	r3,8(r2)
		pxQueue->u.pcReadFrom = pxQueue->pcHead + ( ( pxQueue->uxLength - ( UBaseType_t ) 1U ) * pxQueue->uxItemSize );
   21170:	e0bffd17 	ldw	r2,-12(fp)
   21174:	10c00017 	ldw	r3,0(r2)
   21178:	e0bffd17 	ldw	r2,-12(fp)
   2117c:	10800f17 	ldw	r2,60(r2)
   21180:	113fffc4 	addi	r4,r2,-1
   21184:	e0bffd17 	ldw	r2,-12(fp)
   21188:	10801017 	ldw	r2,64(r2)
   2118c:	2085383a 	mul	r2,r4,r2
   21190:	1887883a 	add	r3,r3,r2
   21194:	e0bffd17 	ldw	r2,-12(fp)
   21198:	10c00315 	stw	r3,12(r2)
		pxQueue->cRxLock = queueUNLOCKED;
   2119c:	e0bffd17 	ldw	r2,-12(fp)
   211a0:	00ffffc4 	movi	r3,-1
   211a4:	10c01105 	stb	r3,68(r2)
		pxQueue->cTxLock = queueUNLOCKED;
   211a8:	e0bffd17 	ldw	r2,-12(fp)
   211ac:	00ffffc4 	movi	r3,-1
   211b0:	10c01145 	stb	r3,69(r2)

		if( xNewQueue == pdFALSE )
   211b4:	e0bfff17 	ldw	r2,-4(fp)
   211b8:	10000a1e 	bne	r2,zero,211e4 <xQueueGenericReset+0xd8>
			/* If there are tasks blocked waiting to read from the queue, then
			the tasks will remain blocked as after this function exits the queue
			will still be empty.  If there are tasks blocked waiting to write to
			the queue, then one should be unblocked as after this function exits
			it will be possible to write to it. */
			if( listLIST_IS_EMPTY( &( pxQueue->xTasksWaitingToSend ) ) == pdFALSE )
   211bc:	e0bffd17 	ldw	r2,-12(fp)
   211c0:	10800417 	ldw	r2,16(r2)
   211c4:	10000f26 	beq	r2,zero,21204 <xQueueGenericReset+0xf8>
			{
				if( xTaskRemoveFromEventList( &( pxQueue->xTasksWaitingToSend ) ) != pdFALSE )
   211c8:	e0bffd17 	ldw	r2,-12(fp)
   211cc:	10800404 	addi	r2,r2,16
   211d0:	1009883a 	mov	r4,r2
   211d4:	0022ca80 	call	22ca8 <xTaskRemoveFromEventList>
   211d8:	10000a26 	beq	r2,zero,21204 <xQueueGenericReset+0xf8>
				{
					queueYIELD_IF_USING_PREEMPTION();
   211dc:	003b683a 	trap	0
   211e0:	00000806 	br	21204 <xQueueGenericReset+0xf8>
			}
		}
		else
		{
			/* Ensure the event queues start in the correct state. */
			vListInitialise( &( pxQueue->xTasksWaitingToSend ) );
   211e4:	e0bffd17 	ldw	r2,-12(fp)
   211e8:	10800404 	addi	r2,r2,16
   211ec:	1009883a 	mov	r4,r2
   211f0:	0020ad80 	call	20ad8 <vListInitialise>
			vListInitialise( &( pxQueue->xTasksWaitingToReceive ) );
   211f4:	e0bffd17 	ldw	r2,-12(fp)
   211f8:	10800904 	addi	r2,r2,36
   211fc:	1009883a 	mov	r4,r2
   21200:	0020ad80 	call	20ad8 <vListInitialise>
		}
	}
	taskEXIT_CRITICAL();
   21204:	00231700 	call	23170 <vTaskExitCritical>

	/* A value is returned for calling semantic consistency with previous
	versions. */
	return pdPASS;
   21208:	00800044 	movi	r2,1
}
   2120c:	e037883a 	mov	sp,fp
   21210:	dfc00117 	ldw	ra,4(sp)
   21214:	df000017 	ldw	fp,0(sp)
   21218:	dec00204 	addi	sp,sp,8
   2121c:	f800283a 	ret

00021220 <xQueueGenericCreate>:
/*-----------------------------------------------------------*/

#if( configSUPPORT_DYNAMIC_ALLOCATION == 1 )

	QueueHandle_t xQueueGenericCreate( const UBaseType_t uxQueueLength, const UBaseType_t uxItemSize, const uint8_t ucQueueType )
	{
   21220:	defff704 	addi	sp,sp,-36
   21224:	dfc00815 	stw	ra,32(sp)
   21228:	df000715 	stw	fp,28(sp)
   2122c:	df000704 	addi	fp,sp,28
   21230:	e13ffd15 	stw	r4,-12(fp)
   21234:	e17ffe15 	stw	r5,-8(fp)
   21238:	3005883a 	mov	r2,r6
   2123c:	e0bfff05 	stb	r2,-4(fp)
	size_t xQueueSizeInBytes;
	uint8_t *pucQueueStorage;

		configASSERT( uxQueueLength > ( UBaseType_t ) 0 );

		if( uxItemSize == ( UBaseType_t ) 0 )
   21240:	e0bffe17 	ldw	r2,-8(fp)
   21244:	1000021e 	bne	r2,zero,21250 <xQueueGenericCreate+0x30>
		{
			/* There is not going to be a queue storage area. */
			xQueueSizeInBytes = ( size_t ) 0;
   21248:	e03ffa15 	stw	zero,-24(fp)
   2124c:	00000406 	br	21260 <xQueueGenericCreate+0x40>
		}
		else
		{
			/* Allocate enough space to hold the maximum number of items that
			can be in the queue at any time. */
			xQueueSizeInBytes = ( size_t ) ( uxQueueLength * uxItemSize ); /*lint !e961 MISRA exception as the casts are only redundant for some ports. */
   21250:	e0fffd17 	ldw	r3,-12(fp)
   21254:	e0bffe17 	ldw	r2,-8(fp)
   21258:	1885383a 	mul	r2,r3,r2
   2125c:	e0bffa15 	stw	r2,-24(fp)
		}

		pxNewQueue = ( Queue_t * ) pvPortMalloc( sizeof( Queue_t ) + xQueueSizeInBytes );
   21260:	e0bffa17 	ldw	r2,-24(fp)
   21264:	10801204 	addi	r2,r2,72
   21268:	1009883a 	mov	r4,r2
   2126c:	00209ac0 	call	209ac <pvPortMalloc>
   21270:	e0bffb15 	stw	r2,-20(fp)

		if( pxNewQueue != NULL )
   21274:	e0bffb17 	ldw	r2,-20(fp)
   21278:	10000b26 	beq	r2,zero,212a8 <xQueueGenericCreate+0x88>
		{
			/* Jump past the queue structure to find the location of the queue
			storage area. */
			pucQueueStorage = ( ( uint8_t * ) pxNewQueue ) + sizeof( Queue_t );
   2127c:	e0bffb17 	ldw	r2,-20(fp)
   21280:	10801204 	addi	r2,r2,72
   21284:	e0bffc15 	stw	r2,-16(fp)
				deleted. */
				pxNewQueue->ucStaticallyAllocated = pdFALSE;
			}
			#endif /* configSUPPORT_STATIC_ALLOCATION */

			prvInitialiseNewQueue( uxQueueLength, uxItemSize, pucQueueStorage, ucQueueType, pxNewQueue );
   21288:	e0ffff03 	ldbu	r3,-4(fp)
   2128c:	e0bffb17 	ldw	r2,-20(fp)
   21290:	d8800015 	stw	r2,0(sp)
   21294:	180f883a 	mov	r7,r3
   21298:	e1bffc17 	ldw	r6,-16(fp)
   2129c:	e17ffe17 	ldw	r5,-8(fp)
   212a0:	e13ffd17 	ldw	r4,-12(fp)
   212a4:	00212c00 	call	212c0 <prvInitialiseNewQueue>
		}

		return pxNewQueue;
   212a8:	e0bffb17 	ldw	r2,-20(fp)
	}
   212ac:	e037883a 	mov	sp,fp
   212b0:	dfc00117 	ldw	ra,4(sp)
   212b4:	df000017 	ldw	fp,0(sp)
   212b8:	dec00204 	addi	sp,sp,8
   212bc:	f800283a 	ret

000212c0 <prvInitialiseNewQueue>:

#endif /* configSUPPORT_STATIC_ALLOCATION */
/*-----------------------------------------------------------*/

static void prvInitialiseNewQueue( const UBaseType_t uxQueueLength, const UBaseType_t uxItemSize, uint8_t *pucQueueStorage, const uint8_t ucQueueType, Queue_t *pxNewQueue )
{
   212c0:	defffa04 	addi	sp,sp,-24
   212c4:	dfc00515 	stw	ra,20(sp)
   212c8:	df000415 	stw	fp,16(sp)
   212cc:	df000404 	addi	fp,sp,16
   212d0:	e13ffc15 	stw	r4,-16(fp)
   212d4:	e17ffd15 	stw	r5,-12(fp)
   212d8:	e1bffe15 	stw	r6,-8(fp)
   212dc:	3805883a 	mov	r2,r7
   212e0:	e0bfff05 	stb	r2,-4(fp)
	/* Remove compiler warnings about unused parameters should
	configUSE_TRACE_FACILITY not be set to 1. */
	( void ) ucQueueType;

	if( uxItemSize == ( UBaseType_t ) 0 )
   212e4:	e0bffd17 	ldw	r2,-12(fp)
   212e8:	1000041e 	bne	r2,zero,212fc <prvInitialiseNewQueue+0x3c>
	{
		/* No RAM was allocated for the queue storage area, but PC head cannot
		be set to NULL because NULL is used as a key to say the queue is used as
		a mutex.  Therefore just set pcHead to point to the queue as a benign
		value that is known to be within the memory map. */
		pxNewQueue->pcHead = ( int8_t * ) pxNewQueue;
   212ec:	e0800217 	ldw	r2,8(fp)
   212f0:	e0c00217 	ldw	r3,8(fp)
   212f4:	10c00015 	stw	r3,0(r2)
   212f8:	00000306 	br	21308 <prvInitialiseNewQueue+0x48>
	}
	else
	{
		/* Set the head to the start of the queue storage area. */
		pxNewQueue->pcHead = ( int8_t * ) pucQueueStorage;
   212fc:	e0800217 	ldw	r2,8(fp)
   21300:	e0fffe17 	ldw	r3,-8(fp)
   21304:	10c00015 	stw	r3,0(r2)
	}

	/* Initialise the queue members as described where the queue type is
	defined. */
	pxNewQueue->uxLength = uxQueueLength;
   21308:	e0800217 	ldw	r2,8(fp)
   2130c:	e0fffc17 	ldw	r3,-16(fp)
   21310:	10c00f15 	stw	r3,60(r2)
	pxNewQueue->uxItemSize = uxItemSize;
   21314:	e0800217 	ldw	r2,8(fp)
   21318:	e0fffd17 	ldw	r3,-12(fp)
   2131c:	10c01015 	stw	r3,64(r2)
	( void ) xQueueGenericReset( pxNewQueue, pdTRUE );
   21320:	01400044 	movi	r5,1
   21324:	e1000217 	ldw	r4,8(fp)
   21328:	002110c0 	call	2110c <xQueueGenericReset>
		pxNewQueue->pxQueueSetContainer = NULL;
	}
	#endif /* configUSE_QUEUE_SETS */

	traceQUEUE_CREATE( pxNewQueue );
}
   2132c:	0001883a 	nop
   21330:	e037883a 	mov	sp,fp
   21334:	dfc00117 	ldw	ra,4(sp)
   21338:	df000017 	ldw	fp,0(sp)
   2133c:	dec00204 	addi	sp,sp,8
   21340:	f800283a 	ret

00021344 <xQueueGenericSend>:

#endif /* ( ( configUSE_COUNTING_SEMAPHORES == 1 ) && ( configSUPPORT_DYNAMIC_ALLOCATION == 1 ) ) */
/*-----------------------------------------------------------*/

BaseType_t xQueueGenericSend( QueueHandle_t xQueue, const void * const pvItemToQueue, TickType_t xTicksToWait, const BaseType_t xCopyPosition )
{
   21344:	defff504 	addi	sp,sp,-44
   21348:	dfc00a15 	stw	ra,40(sp)
   2134c:	df000915 	stw	fp,36(sp)
   21350:	df000904 	addi	fp,sp,36
   21354:	e13ffc15 	stw	r4,-16(fp)
   21358:	e17ffd15 	stw	r5,-12(fp)
   2135c:	e1bffe15 	stw	r6,-8(fp)
   21360:	e1ffff15 	stw	r7,-4(fp)
BaseType_t xEntryTimeSet = pdFALSE, xYieldRequired;
   21364:	e03ff715 	stw	zero,-36(fp)
TimeOut_t xTimeOut;
Queue_t * const pxQueue = ( Queue_t * ) xQueue;
   21368:	e0bffc17 	ldw	r2,-16(fp)
   2136c:	e0bff815 	stw	r2,-32(fp)
	/* This function relaxes the coding standard somewhat to allow return
	statements within the function itself.  This is done in the interest
	of execution time efficiency. */
	for( ;; )
	{
		taskENTER_CRITICAL();
   21370:	002311c0 	call	2311c <vTaskEnterCritical>
		{
			/* Is there room on the queue now?  The running task must be the
			highest priority task wanting to access the queue.  If the head item
			in the queue is to be overwritten then it does not matter if the
			queue is full. */
			if( ( pxQueue->uxMessagesWaiting < pxQueue->uxLength ) || ( xCopyPosition == queueOVERWRITE ) )
   21374:	e0bff817 	ldw	r2,-32(fp)
   21378:	10c00e17 	ldw	r3,56(r2)
   2137c:	e0bff817 	ldw	r2,-32(fp)
   21380:	10800f17 	ldw	r2,60(r2)
   21384:	18800336 	bltu	r3,r2,21394 <xQueueGenericSend+0x50>
   21388:	e0bfff17 	ldw	r2,-4(fp)
   2138c:	10800098 	cmpnei	r2,r2,2
   21390:	1000151e 	bne	r2,zero,213e8 <xQueueGenericSend+0xa4>
			{
				traceQUEUE_SEND( pxQueue );
				xYieldRequired = prvCopyDataToQueue( pxQueue, pvItemToQueue, xCopyPosition );
   21394:	e1bfff17 	ldw	r6,-4(fp)
   21398:	e17ffd17 	ldw	r5,-12(fp)
   2139c:	e13ff817 	ldw	r4,-32(fp)
   213a0:	0021b100 	call	21b10 <prvCopyDataToQueue>
   213a4:	e0bff915 	stw	r2,-28(fp)
				}
				#else /* configUSE_QUEUE_SETS */
				{
					/* If there was a task waiting for data to arrive on the
					queue then unblock it now. */
					if( listLIST_IS_EMPTY( &( pxQueue->xTasksWaitingToReceive ) ) == pdFALSE )
   213a8:	e0bff817 	ldw	r2,-32(fp)
   213ac:	10800917 	ldw	r2,36(r2)
   213b0:	10000726 	beq	r2,zero,213d0 <xQueueGenericSend+0x8c>
					{
						if( xTaskRemoveFromEventList( &( pxQueue->xTasksWaitingToReceive ) ) != pdFALSE )
   213b4:	e0bff817 	ldw	r2,-32(fp)
   213b8:	10800904 	addi	r2,r2,36
   213bc:	1009883a 	mov	r4,r2
   213c0:	0022ca80 	call	22ca8 <xTaskRemoveFromEventList>
   213c4:	10000526 	beq	r2,zero,213dc <xQueueGenericSend+0x98>
						{
							/* The unblocked task has a priority higher than
							our own so yield immediately.  Yes it is ok to do
							this from within the critical section - the kernel
							takes care of that. */
							queueYIELD_IF_USING_PREEMPTION();
   213c8:	003b683a 	trap	0
   213cc:	00000306 	br	213dc <xQueueGenericSend+0x98>
						else
						{
							mtCOVERAGE_TEST_MARKER();
						}
					}
					else if( xYieldRequired != pdFALSE )
   213d0:	e0bff917 	ldw	r2,-28(fp)
   213d4:	10000126 	beq	r2,zero,213dc <xQueueGenericSend+0x98>
					{
						/* This path is a special case that will only get
						executed if the task was holding multiple mutexes and
						the mutexes were given back in an order that is
						different to that in which they were taken. */
						queueYIELD_IF_USING_PREEMPTION();
   213d8:	003b683a 	trap	0
						mtCOVERAGE_TEST_MARKER();
					}
				}
				#endif /* configUSE_QUEUE_SETS */

				taskEXIT_CRITICAL();
   213dc:	00231700 	call	23170 <vTaskExitCritical>
				return pdPASS;
   213e0:	00800044 	movi	r2,1
   213e4:	00003f06 	br	214e4 <xQueueGenericSend+0x1a0>
			}
			else
			{
				if( xTicksToWait == ( TickType_t ) 0 )
   213e8:	e0bffe17 	ldw	r2,-8(fp)
   213ec:	1000031e 	bne	r2,zero,213fc <xQueueGenericSend+0xb8>
				{
					/* The queue was full and no block time is specified (or
					the block time has expired) so leave now. */
					taskEXIT_CRITICAL();
   213f0:	00231700 	call	23170 <vTaskExitCritical>

					/* Return to the original privilege level before exiting
					the function. */
					traceQUEUE_SEND_FAILED( pxQueue );
					return errQUEUE_FULL;
   213f4:	0005883a 	mov	r2,zero
   213f8:	00003a06 	br	214e4 <xQueueGenericSend+0x1a0>
				}
				else if( xEntryTimeSet == pdFALSE )
   213fc:	e0bff717 	ldw	r2,-36(fp)
   21400:	1000051e 	bne	r2,zero,21418 <xQueueGenericSend+0xd4>
				{
					/* The queue was full and a block time was specified so
					configure the timeout structure. */
					vTaskSetTimeOutState( &xTimeOut );
   21404:	e0bffa04 	addi	r2,fp,-24
   21408:	1009883a 	mov	r4,r2
   2140c:	0022e740 	call	22e74 <vTaskSetTimeOutState>
					xEntryTimeSet = pdTRUE;
   21410:	00800044 	movi	r2,1
   21414:	e0bff715 	stw	r2,-36(fp)
					/* Entry time was already set. */
					mtCOVERAGE_TEST_MARKER();
				}
			}
		}
		taskEXIT_CRITICAL();
   21418:	00231700 	call	23170 <vTaskExitCritical>

		/* Interrupts and other tasks can send to and receive from the queue
		now the critical section has been exited. */

		vTaskSuspendAll();
   2141c:	00227200 	call	22720 <vTaskSuspendAll>
		prvLockQueue( pxQueue );
   21420:	002311c0 	call	2311c <vTaskEnterCritical>
   21424:	e0bff817 	ldw	r2,-32(fp)
   21428:	10801103 	ldbu	r2,68(r2)
   2142c:	10803fcc 	andi	r2,r2,255
   21430:	1080201c 	xori	r2,r2,128
   21434:	10bfe004 	addi	r2,r2,-128
   21438:	10bfffd8 	cmpnei	r2,r2,-1
   2143c:	1000021e 	bne	r2,zero,21448 <xQueueGenericSend+0x104>
   21440:	e0bff817 	ldw	r2,-32(fp)
   21444:	10001105 	stb	zero,68(r2)
   21448:	e0bff817 	ldw	r2,-32(fp)
   2144c:	10801143 	ldbu	r2,69(r2)
   21450:	10803fcc 	andi	r2,r2,255
   21454:	1080201c 	xori	r2,r2,128
   21458:	10bfe004 	addi	r2,r2,-128
   2145c:	10bfffd8 	cmpnei	r2,r2,-1
   21460:	1000021e 	bne	r2,zero,2146c <xQueueGenericSend+0x128>
   21464:	e0bff817 	ldw	r2,-32(fp)
   21468:	10001145 	stb	zero,69(r2)
   2146c:	00231700 	call	23170 <vTaskExitCritical>

		/* Update the timeout state to see if it has expired yet. */
		if( xTaskCheckForTimeOut( &xTimeOut, &xTicksToWait ) == pdFALSE )
   21470:	e0fffe04 	addi	r3,fp,-8
   21474:	e0bffa04 	addi	r2,fp,-24
   21478:	180b883a 	mov	r5,r3
   2147c:	1009883a 	mov	r4,r2
   21480:	0022eb00 	call	22eb0 <xTaskCheckForTimeOut>
   21484:	1000131e 	bne	r2,zero,214d4 <xQueueGenericSend+0x190>
		{
			if( prvIsQueueFull( pxQueue ) != pdFALSE )
   21488:	e13ff817 	ldw	r4,-32(fp)
   2148c:	0021e900 	call	21e90 <prvIsQueueFull>
   21490:	10000c26 	beq	r2,zero,214c4 <xQueueGenericSend+0x180>
			{
				traceBLOCKING_ON_QUEUE_SEND( pxQueue );
				vTaskPlaceOnEventList( &( pxQueue->xTasksWaitingToSend ), xTicksToWait );
   21494:	e0bff817 	ldw	r2,-32(fp)
   21498:	10800404 	addi	r2,r2,16
   2149c:	e0fffe17 	ldw	r3,-8(fp)
   214a0:	180b883a 	mov	r5,r3
   214a4:	1009883a 	mov	r4,r2
   214a8:	0022bf40 	call	22bf4 <vTaskPlaceOnEventList>
				/* Unlocking the queue means queue events can effect the
				event list.  It is possible	that interrupts occurring now
				remove this task from the event	list again - but as the
				scheduler is suspended the task will go onto the pending
				ready last instead of the actual ready list. */
				prvUnlockQueue( pxQueue );
   214ac:	e13ff817 	ldw	r4,-32(fp)
   214b0:	0021d0c0 	call	21d0c <prvUnlockQueue>
				/* Resuming the scheduler will move tasks from the pending
				ready list into the ready list - so it is feasible that this
				task is already in a ready list before it yields - in which
				case the yield will not cause a context switch unless there
				is also a higher priority task in the pending ready list. */
				if( xTaskResumeAll() == pdFALSE )
   214b4:	002274c0 	call	2274c <xTaskResumeAll>
   214b8:	103fad1e 	bne	r2,zero,21370 <__reset+0xfff81370>
				{
					portYIELD_WITHIN_API();
   214bc:	003b683a 	trap	0
   214c0:	003fab06 	br	21370 <__reset+0xfff81370>
				}
			}
			else
			{
				/* Try again. */
				prvUnlockQueue( pxQueue );
   214c4:	e13ff817 	ldw	r4,-32(fp)
   214c8:	0021d0c0 	call	21d0c <prvUnlockQueue>
				( void ) xTaskResumeAll();
   214cc:	002274c0 	call	2274c <xTaskResumeAll>
   214d0:	003fa706 	br	21370 <__reset+0xfff81370>
			}
		}
		else
		{
			/* The timeout has expired. */
			prvUnlockQueue( pxQueue );
   214d4:	e13ff817 	ldw	r4,-32(fp)
   214d8:	0021d0c0 	call	21d0c <prvUnlockQueue>
			( void ) xTaskResumeAll();
   214dc:	002274c0 	call	2274c <xTaskResumeAll>

			traceQUEUE_SEND_FAILED( pxQueue );
			return errQUEUE_FULL;
   214e0:	0005883a 	mov	r2,zero
		}
	}
}
   214e4:	e037883a 	mov	sp,fp
   214e8:	dfc00117 	ldw	ra,4(sp)
   214ec:	df000017 	ldw	fp,0(sp)
   214f0:	dec00204 	addi	sp,sp,8
   214f4:	f800283a 	ret

000214f8 <xQueueGenericSendFromISR>:
/*-----------------------------------------------------------*/

BaseType_t xQueueGenericSendFromISR( QueueHandle_t xQueue, const void * const pvItemToQueue, BaseType_t * const pxHigherPriorityTaskWoken, const BaseType_t xCopyPosition )
{
   214f8:	defff604 	addi	sp,sp,-40
   214fc:	dfc00915 	stw	ra,36(sp)
   21500:	df000815 	stw	fp,32(sp)
   21504:	df000804 	addi	fp,sp,32
   21508:	e13ffc15 	stw	r4,-16(fp)
   2150c:	e17ffd15 	stw	r5,-12(fp)
   21510:	e1bffe15 	stw	r6,-8(fp)
   21514:	e1ffff15 	stw	r7,-4(fp)
BaseType_t xReturn;
UBaseType_t uxSavedInterruptStatus;
Queue_t * const pxQueue = ( Queue_t * ) xQueue;
   21518:	e0bffc17 	ldw	r2,-16(fp)
   2151c:	e0bff915 	stw	r2,-28(fp)
	/* Similar to xQueueGenericSend, except without blocking if there is no room
	in the queue.  Also don't directly wake a task that was blocked on a queue
	read, instead return a flag to say whether a context switch is required or
	not (i.e. has a task with a higher priority than us been woken by this
	post). */
	uxSavedInterruptStatus = portSET_INTERRUPT_MASK_FROM_ISR();
   21520:	e03ffa15 	stw	zero,-24(fp)
	{
		if( ( pxQueue->uxMessagesWaiting < pxQueue->uxLength ) || ( xCopyPosition == queueOVERWRITE ) )
   21524:	e0bff917 	ldw	r2,-28(fp)
   21528:	10c00e17 	ldw	r3,56(r2)
   2152c:	e0bff917 	ldw	r2,-28(fp)
   21530:	10800f17 	ldw	r2,60(r2)
   21534:	18800336 	bltu	r3,r2,21544 <xQueueGenericSendFromISR+0x4c>
   21538:	e0bfff17 	ldw	r2,-4(fp)
   2153c:	10800098 	cmpnei	r2,r2,2
   21540:	1000201e 	bne	r2,zero,215c4 <xQueueGenericSendFromISR+0xcc>
		{
			const int8_t cTxLock = pxQueue->cTxLock;
   21544:	e0bff917 	ldw	r2,-28(fp)
   21548:	10801143 	ldbu	r2,69(r2)
   2154c:	e0bffb05 	stb	r2,-20(fp)
			/* Semaphores use xQueueGiveFromISR(), so pxQueue will not be a
			semaphore or mutex.  That means prvCopyDataToQueue() cannot result
			in a task disinheriting a priority and prvCopyDataToQueue() can be
			called here even though the disinherit function does not check if
			the scheduler is suspended before accessing the ready lists. */
			( void ) prvCopyDataToQueue( pxQueue, pvItemToQueue, xCopyPosition );
   21550:	e1bfff17 	ldw	r6,-4(fp)
   21554:	e17ffd17 	ldw	r5,-12(fp)
   21558:	e13ff917 	ldw	r4,-28(fp)
   2155c:	0021b100 	call	21b10 <prvCopyDataToQueue>

			/* The event list is not altered if the queue is locked.  This will
			be done when the queue is unlocked later. */
			if( cTxLock == queueUNLOCKED )
   21560:	e0bffb07 	ldb	r2,-20(fp)
   21564:	10bfffd8 	cmpnei	r2,r2,-1
   21568:	10000e1e 	bne	r2,zero,215a4 <xQueueGenericSendFromISR+0xac>
						}
					}
				}
				#else /* configUSE_QUEUE_SETS */
				{
					if( listLIST_IS_EMPTY( &( pxQueue->xTasksWaitingToReceive ) ) == pdFALSE )
   2156c:	e0bff917 	ldw	r2,-28(fp)
   21570:	10800917 	ldw	r2,36(r2)
   21574:	10001026 	beq	r2,zero,215b8 <xQueueGenericSendFromISR+0xc0>
					{
						if( xTaskRemoveFromEventList( &( pxQueue->xTasksWaitingToReceive ) ) != pdFALSE )
   21578:	e0bff917 	ldw	r2,-28(fp)
   2157c:	10800904 	addi	r2,r2,36
   21580:	1009883a 	mov	r4,r2
   21584:	0022ca80 	call	22ca8 <xTaskRemoveFromEventList>
   21588:	10000b26 	beq	r2,zero,215b8 <xQueueGenericSendFromISR+0xc0>
						{
							/* The task waiting has a higher priority so record that a
							context	switch is required. */
							if( pxHigherPriorityTaskWoken != NULL )
   2158c:	e0bffe17 	ldw	r2,-8(fp)
   21590:	10000926 	beq	r2,zero,215b8 <xQueueGenericSendFromISR+0xc0>
							{
								*pxHigherPriorityTaskWoken = pdTRUE;
   21594:	e0bffe17 	ldw	r2,-8(fp)
   21598:	00c00044 	movi	r3,1
   2159c:	10c00015 	stw	r3,0(r2)
   215a0:	00000506 	br	215b8 <xQueueGenericSendFromISR+0xc0>
			}
			else
			{
				/* Increment the lock count so the task that unlocks the queue
				knows that data was posted while it was locked. */
				pxQueue->cTxLock = ( int8_t ) ( cTxLock + 1 );
   215a4:	e0bffb03 	ldbu	r2,-20(fp)
   215a8:	10800044 	addi	r2,r2,1
   215ac:	1007883a 	mov	r3,r2
   215b0:	e0bff917 	ldw	r2,-28(fp)
   215b4:	10c01145 	stb	r3,69(r2)
			}

			xReturn = pdPASS;
   215b8:	00800044 	movi	r2,1
   215bc:	e0bff815 	stw	r2,-32(fp)
	not (i.e. has a task with a higher priority than us been woken by this
	post). */
	uxSavedInterruptStatus = portSET_INTERRUPT_MASK_FROM_ISR();
	{
		if( ( pxQueue->uxMessagesWaiting < pxQueue->uxLength ) || ( xCopyPosition == queueOVERWRITE ) )
		{
   215c0:	00000106 	br	215c8 <xQueueGenericSendFromISR+0xd0>
			xReturn = pdPASS;
		}
		else
		{
			traceQUEUE_SEND_FROM_ISR_FAILED( pxQueue );
			xReturn = errQUEUE_FULL;
   215c4:	e03ff815 	stw	zero,-32(fp)
		}
	}
	portCLEAR_INTERRUPT_MASK_FROM_ISR( uxSavedInterruptStatus );

	return xReturn;
   215c8:	e0bff817 	ldw	r2,-32(fp)
}
   215cc:	e037883a 	mov	sp,fp
   215d0:	dfc00117 	ldw	ra,4(sp)
   215d4:	df000017 	ldw	fp,0(sp)
   215d8:	dec00204 	addi	sp,sp,8
   215dc:	f800283a 	ret

000215e0 <xQueueGiveFromISR>:
/*-----------------------------------------------------------*/

BaseType_t xQueueGiveFromISR( QueueHandle_t xQueue, BaseType_t * const pxHigherPriorityTaskWoken )
{
   215e0:	defff704 	addi	sp,sp,-36
   215e4:	dfc00815 	stw	ra,32(sp)
   215e8:	df000715 	stw	fp,28(sp)
   215ec:	df000704 	addi	fp,sp,28
   215f0:	e13ffe15 	stw	r4,-8(fp)
   215f4:	e17fff15 	stw	r5,-4(fp)
BaseType_t xReturn;
UBaseType_t uxSavedInterruptStatus;
Queue_t * const pxQueue = ( Queue_t * ) xQueue;
   215f8:	e0bffe17 	ldw	r2,-8(fp)
   215fc:	e0bffa15 	stw	r2,-24(fp)
	safe API to ensure interrupt entry is as fast and as simple as possible.
	More information (albeit Cortex-M specific) is provided on the following
	link: http://www.freertos.org/RTOS-Cortex-M3-M4.html */
	portASSERT_IF_INTERRUPT_PRIORITY_INVALID();

	uxSavedInterruptStatus = portSET_INTERRUPT_MASK_FROM_ISR();
   21600:	e03ffb15 	stw	zero,-20(fp)
	{
		const UBaseType_t uxMessagesWaiting = pxQueue->uxMessagesWaiting;
   21604:	e0bffa17 	ldw	r2,-24(fp)
   21608:	10800e17 	ldw	r2,56(r2)
   2160c:	e0bffc15 	stw	r2,-16(fp)

		/* When the queue is used to implement a semaphore no data is ever
		moved through the queue but it is still valid to see if the queue 'has
		space'. */
		if( uxMessagesWaiting < pxQueue->uxLength )
   21610:	e0bffa17 	ldw	r2,-24(fp)
   21614:	10800f17 	ldw	r2,60(r2)
   21618:	e0fffc17 	ldw	r3,-16(fp)
   2161c:	1880202e 	bgeu	r3,r2,216a0 <xQueueGiveFromISR+0xc0>
		{
			const int8_t cTxLock = pxQueue->cTxLock;
   21620:	e0bffa17 	ldw	r2,-24(fp)
   21624:	10801143 	ldbu	r2,69(r2)
   21628:	e0bffd05 	stb	r2,-12(fp)
			holder - and if there is a mutex holder then the mutex cannot be
			given from an ISR.  As this is the ISR version of the function it
			can be assumed there is no mutex holder and no need to determine if
			priority disinheritance is needed.  Simply increase the count of
			messages (semaphores) available. */
			pxQueue->uxMessagesWaiting = uxMessagesWaiting + 1;
   2162c:	e0bffc17 	ldw	r2,-16(fp)
   21630:	10c00044 	addi	r3,r2,1
   21634:	e0bffa17 	ldw	r2,-24(fp)
   21638:	10c00e15 	stw	r3,56(r2)

			/* The event list is not altered if the queue is locked.  This will
			be done when the queue is unlocked later. */
			if( cTxLock == queueUNLOCKED )
   2163c:	e0bffd07 	ldb	r2,-12(fp)
   21640:	10bfffd8 	cmpnei	r2,r2,-1
   21644:	10000e1e 	bne	r2,zero,21680 <xQueueGiveFromISR+0xa0>
						}
					}
				}
				#else /* configUSE_QUEUE_SETS */
				{
					if( listLIST_IS_EMPTY( &( pxQueue->xTasksWaitingToReceive ) ) == pdFALSE )
   21648:	e0bffa17 	ldw	r2,-24(fp)
   2164c:	10800917 	ldw	r2,36(r2)
   21650:	10001026 	beq	r2,zero,21694 <xQueueGiveFromISR+0xb4>
					{
						if( xTaskRemoveFromEventList( &( pxQueue->xTasksWaitingToReceive ) ) != pdFALSE )
   21654:	e0bffa17 	ldw	r2,-24(fp)
   21658:	10800904 	addi	r2,r2,36
   2165c:	1009883a 	mov	r4,r2
   21660:	0022ca80 	call	22ca8 <xTaskRemoveFromEventList>
   21664:	10000b26 	beq	r2,zero,21694 <xQueueGiveFromISR+0xb4>
						{
							/* The task waiting has a higher priority so record that a
							context	switch is required. */
							if( pxHigherPriorityTaskWoken != NULL )
   21668:	e0bfff17 	ldw	r2,-4(fp)
   2166c:	10000926 	beq	r2,zero,21694 <xQueueGiveFromISR+0xb4>
							{
								*pxHigherPriorityTaskWoken = pdTRUE;
   21670:	e0bfff17 	ldw	r2,-4(fp)
   21674:	00c00044 	movi	r3,1
   21678:	10c00015 	stw	r3,0(r2)
   2167c:	00000506 	br	21694 <xQueueGiveFromISR+0xb4>
			}
			else
			{
				/* Increment the lock count so the task that unlocks the queue
				knows that data was posted while it was locked. */
				pxQueue->cTxLock = ( int8_t ) ( cTxLock + 1 );
   21680:	e0bffd03 	ldbu	r2,-12(fp)
   21684:	10800044 	addi	r2,r2,1
   21688:	1007883a 	mov	r3,r2
   2168c:	e0bffa17 	ldw	r2,-24(fp)
   21690:	10c01145 	stb	r3,69(r2)
			}

			xReturn = pdPASS;
   21694:	00800044 	movi	r2,1
   21698:	e0bff915 	stw	r2,-28(fp)
   2169c:	00000106 	br	216a4 <xQueueGiveFromISR+0xc4>
		}
		else
		{
			traceQUEUE_SEND_FROM_ISR_FAILED( pxQueue );
			xReturn = errQUEUE_FULL;
   216a0:	e03ff915 	stw	zero,-28(fp)
		}
	}
	portCLEAR_INTERRUPT_MASK_FROM_ISR( uxSavedInterruptStatus );

	return xReturn;
   216a4:	e0bff917 	ldw	r2,-28(fp)
}
   216a8:	e037883a 	mov	sp,fp
   216ac:	dfc00117 	ldw	ra,4(sp)
   216b0:	df000017 	ldw	fp,0(sp)
   216b4:	dec00204 	addi	sp,sp,8
   216b8:	f800283a 	ret

000216bc <xQueueGenericReceive>:
/*-----------------------------------------------------------*/

BaseType_t xQueueGenericReceive( QueueHandle_t xQueue, void * const pvBuffer, TickType_t xTicksToWait, const BaseType_t xJustPeeking )
{
   216bc:	defff404 	addi	sp,sp,-48
   216c0:	dfc00b15 	stw	ra,44(sp)
   216c4:	df000a15 	stw	fp,40(sp)
   216c8:	df000a04 	addi	fp,sp,40
   216cc:	e13ffc15 	stw	r4,-16(fp)
   216d0:	e17ffd15 	stw	r5,-12(fp)
   216d4:	e1bffe15 	stw	r6,-8(fp)
   216d8:	e1ffff15 	stw	r7,-4(fp)
BaseType_t xEntryTimeSet = pdFALSE;
   216dc:	e03ff615 	stw	zero,-40(fp)
TimeOut_t xTimeOut;
int8_t *pcOriginalReadPosition;
Queue_t * const pxQueue = ( Queue_t * ) xQueue;
   216e0:	e0bffc17 	ldw	r2,-16(fp)
   216e4:	e0bff715 	stw	r2,-36(fp)
	statements within the function itself.  This is done in the interest
	of execution time efficiency. */

	for( ;; )
	{
		taskENTER_CRITICAL();
   216e8:	002311c0 	call	2311c <vTaskEnterCritical>
		{
			const UBaseType_t uxMessagesWaiting = pxQueue->uxMessagesWaiting;
   216ec:	e0bff717 	ldw	r2,-36(fp)
   216f0:	10800e17 	ldw	r2,56(r2)
   216f4:	e0bff815 	stw	r2,-32(fp)

			/* Is there data in the queue now?  To be running the calling task
			must be the highest priority task wanting to access the queue. */
			if( uxMessagesWaiting > ( UBaseType_t ) 0 )
   216f8:	e0bff817 	ldw	r2,-32(fp)
   216fc:	10002526 	beq	r2,zero,21794 <xQueueGenericReceive+0xd8>
			{
				/* Remember the read position in case the queue is only being
				peeked. */
				pcOriginalReadPosition = pxQueue->u.pcReadFrom;
   21700:	e0bff717 	ldw	r2,-36(fp)
   21704:	10800317 	ldw	r2,12(r2)
   21708:	e0bff915 	stw	r2,-28(fp)

				prvCopyDataFromQueue( pxQueue, pvBuffer );
   2170c:	e17ffd17 	ldw	r5,-12(fp)
   21710:	e13ff717 	ldw	r4,-36(fp)
   21714:	0021c700 	call	21c70 <prvCopyDataFromQueue>

				if( xJustPeeking == pdFALSE )
   21718:	e0bfff17 	ldw	r2,-4(fp)
   2171c:	10000e1e 	bne	r2,zero,21758 <xQueueGenericReceive+0x9c>
				{
					traceQUEUE_RECEIVE( pxQueue );

					/* Actually removing data, not just peeking. */
					pxQueue->uxMessagesWaiting = uxMessagesWaiting - 1;
   21720:	e0bff817 	ldw	r2,-32(fp)
   21724:	10ffffc4 	addi	r3,r2,-1
   21728:	e0bff717 	ldw	r2,-36(fp)
   2172c:	10c00e15 	stw	r3,56(r2)
							mtCOVERAGE_TEST_MARKER();
						}
					}
					#endif /* configUSE_MUTEXES */

					if( listLIST_IS_EMPTY( &( pxQueue->xTasksWaitingToSend ) ) == pdFALSE )
   21730:	e0bff717 	ldw	r2,-36(fp)
   21734:	10800417 	ldw	r2,16(r2)
   21738:	10001326 	beq	r2,zero,21788 <xQueueGenericReceive+0xcc>
					{
						if( xTaskRemoveFromEventList( &( pxQueue->xTasksWaitingToSend ) ) != pdFALSE )
   2173c:	e0bff717 	ldw	r2,-36(fp)
   21740:	10800404 	addi	r2,r2,16
   21744:	1009883a 	mov	r4,r2
   21748:	0022ca80 	call	22ca8 <xTaskRemoveFromEventList>
   2174c:	10000e26 	beq	r2,zero,21788 <xQueueGenericReceive+0xcc>
						{
							queueYIELD_IF_USING_PREEMPTION();
   21750:	003b683a 	trap	0
   21754:	00000c06 	br	21788 <xQueueGenericReceive+0xcc>
				{
					traceQUEUE_PEEK( pxQueue );

					/* The data is not being removed, so reset the read
					pointer. */
					pxQueue->u.pcReadFrom = pcOriginalReadPosition;
   21758:	e0bff717 	ldw	r2,-36(fp)
   2175c:	e0fff917 	ldw	r3,-28(fp)
   21760:	10c00315 	stw	r3,12(r2)

					/* The data is being left in the queue, so see if there are
					any other tasks waiting for the data. */
					if( listLIST_IS_EMPTY( &( pxQueue->xTasksWaitingToReceive ) ) == pdFALSE )
   21764:	e0bff717 	ldw	r2,-36(fp)
   21768:	10800917 	ldw	r2,36(r2)
   2176c:	10000626 	beq	r2,zero,21788 <xQueueGenericReceive+0xcc>
					{
						if( xTaskRemoveFromEventList( &( pxQueue->xTasksWaitingToReceive ) ) != pdFALSE )
   21770:	e0bff717 	ldw	r2,-36(fp)
   21774:	10800904 	addi	r2,r2,36
   21778:	1009883a 	mov	r4,r2
   2177c:	0022ca80 	call	22ca8 <xTaskRemoveFromEventList>
   21780:	10000126 	beq	r2,zero,21788 <xQueueGenericReceive+0xcc>
						{
							/* The task waiting has a higher priority than this task. */
							queueYIELD_IF_USING_PREEMPTION();
   21784:	003b683a 	trap	0
					{
						mtCOVERAGE_TEST_MARKER();
					}
				}

				taskEXIT_CRITICAL();
   21788:	00231700 	call	23170 <vTaskExitCritical>
				return pdPASS;
   2178c:	00800044 	movi	r2,1
   21790:	00004206 	br	2189c <xQueueGenericReceive+0x1e0>
			}
			else
			{
				if( xTicksToWait == ( TickType_t ) 0 )
   21794:	e0bffe17 	ldw	r2,-8(fp)
   21798:	1000031e 	bne	r2,zero,217a8 <xQueueGenericReceive+0xec>
				{
					/* The queue was empty and no block time is specified (or
					the block time has expired) so leave now. */
					taskEXIT_CRITICAL();
   2179c:	00231700 	call	23170 <vTaskExitCritical>
					traceQUEUE_RECEIVE_FAILED( pxQueue );
					return errQUEUE_EMPTY;
   217a0:	0005883a 	mov	r2,zero
   217a4:	00003d06 	br	2189c <xQueueGenericReceive+0x1e0>
				}
				else if( xEntryTimeSet == pdFALSE )
   217a8:	e0bff617 	ldw	r2,-40(fp)
   217ac:	1000051e 	bne	r2,zero,217c4 <xQueueGenericReceive+0x108>
				{
					/* The queue was empty and a block time was specified so
					configure the timeout structure. */
					vTaskSetTimeOutState( &xTimeOut );
   217b0:	e0bffa04 	addi	r2,fp,-24
   217b4:	1009883a 	mov	r4,r2
   217b8:	0022e740 	call	22e74 <vTaskSetTimeOutState>
					xEntryTimeSet = pdTRUE;
   217bc:	00800044 	movi	r2,1
   217c0:	e0bff615 	stw	r2,-40(fp)
					/* Entry time was already set. */
					mtCOVERAGE_TEST_MARKER();
				}
			}
		}
		taskEXIT_CRITICAL();
   217c4:	00231700 	call	23170 <vTaskExitCritical>

		/* Interrupts and other tasks can send to and receive from the queue
		now the critical section has been exited. */

		vTaskSuspendAll();
   217c8:	00227200 	call	22720 <vTaskSuspendAll>
		prvLockQueue( pxQueue );
   217cc:	002311c0 	call	2311c <vTaskEnterCritical>
   217d0:	e0bff717 	ldw	r2,-36(fp)
   217d4:	10801103 	ldbu	r2,68(r2)
   217d8:	10803fcc 	andi	r2,r2,255
   217dc:	1080201c 	xori	r2,r2,128
   217e0:	10bfe004 	addi	r2,r2,-128
   217e4:	10bfffd8 	cmpnei	r2,r2,-1
   217e8:	1000021e 	bne	r2,zero,217f4 <xQueueGenericReceive+0x138>
   217ec:	e0bff717 	ldw	r2,-36(fp)
   217f0:	10001105 	stb	zero,68(r2)
   217f4:	e0bff717 	ldw	r2,-36(fp)
   217f8:	10801143 	ldbu	r2,69(r2)
   217fc:	10803fcc 	andi	r2,r2,255
   21800:	1080201c 	xori	r2,r2,128
   21804:	10bfe004 	addi	r2,r2,-128
   21808:	10bfffd8 	cmpnei	r2,r2,-1
   2180c:	1000021e 	bne	r2,zero,21818 <xQueueGenericReceive+0x15c>
   21810:	e0bff717 	ldw	r2,-36(fp)
   21814:	10001145 	stb	zero,69(r2)
   21818:	00231700 	call	23170 <vTaskExitCritical>

		/* Update the timeout state to see if it has expired yet. */
		if( xTaskCheckForTimeOut( &xTimeOut, &xTicksToWait ) == pdFALSE )
   2181c:	e0fffe04 	addi	r3,fp,-8
   21820:	e0bffa04 	addi	r2,fp,-24
   21824:	180b883a 	mov	r5,r3
   21828:	1009883a 	mov	r4,r2
   2182c:	0022eb00 	call	22eb0 <xTaskCheckForTimeOut>
   21830:	1000131e 	bne	r2,zero,21880 <xQueueGenericReceive+0x1c4>
		{
			if( prvIsQueueEmpty( pxQueue ) != pdFALSE )
   21834:	e13ff717 	ldw	r4,-36(fp)
   21838:	0021e000 	call	21e00 <prvIsQueueEmpty>
   2183c:	10000c26 	beq	r2,zero,21870 <xQueueGenericReceive+0x1b4>
						mtCOVERAGE_TEST_MARKER();
					}
				}
				#endif

				vTaskPlaceOnEventList( &( pxQueue->xTasksWaitingToReceive ), xTicksToWait );
   21840:	e0bff717 	ldw	r2,-36(fp)
   21844:	10800904 	addi	r2,r2,36
   21848:	e0fffe17 	ldw	r3,-8(fp)
   2184c:	180b883a 	mov	r5,r3
   21850:	1009883a 	mov	r4,r2
   21854:	0022bf40 	call	22bf4 <vTaskPlaceOnEventList>
				prvUnlockQueue( pxQueue );
   21858:	e13ff717 	ldw	r4,-36(fp)
   2185c:	0021d0c0 	call	21d0c <prvUnlockQueue>
				if( xTaskResumeAll() == pdFALSE )
   21860:	002274c0 	call	2274c <xTaskResumeAll>
   21864:	103fa01e 	bne	r2,zero,216e8 <__reset+0xfff816e8>
				{
					portYIELD_WITHIN_API();
   21868:	003b683a 	trap	0
   2186c:	003f9e06 	br	216e8 <__reset+0xfff816e8>
				}
			}
			else
			{
				/* Try again. */
				prvUnlockQueue( pxQueue );
   21870:	e13ff717 	ldw	r4,-36(fp)
   21874:	0021d0c0 	call	21d0c <prvUnlockQueue>
				( void ) xTaskResumeAll();
   21878:	002274c0 	call	2274c <xTaskResumeAll>
   2187c:	003f9a06 	br	216e8 <__reset+0xfff816e8>
			}
		}
		else
		{
			prvUnlockQueue( pxQueue );
   21880:	e13ff717 	ldw	r4,-36(fp)
   21884:	0021d0c0 	call	21d0c <prvUnlockQueue>
			( void ) xTaskResumeAll();
   21888:	002274c0 	call	2274c <xTaskResumeAll>

			if( prvIsQueueEmpty( pxQueue ) != pdFALSE )
   2188c:	e13ff717 	ldw	r4,-36(fp)
   21890:	0021e000 	call	21e00 <prvIsQueueEmpty>
   21894:	103f9426 	beq	r2,zero,216e8 <__reset+0xfff816e8>
			{
				traceQUEUE_RECEIVE_FAILED( pxQueue );
				return errQUEUE_EMPTY;
   21898:	0005883a 	mov	r2,zero
			{
				mtCOVERAGE_TEST_MARKER();
			}
		}
	}
}
   2189c:	e037883a 	mov	sp,fp
   218a0:	dfc00117 	ldw	ra,4(sp)
   218a4:	df000017 	ldw	fp,0(sp)
   218a8:	dec00204 	addi	sp,sp,8
   218ac:	f800283a 	ret

000218b0 <xQueueReceiveFromISR>:
/*-----------------------------------------------------------*/

BaseType_t xQueueReceiveFromISR( QueueHandle_t xQueue, void * const pvBuffer, BaseType_t * const pxHigherPriorityTaskWoken )
{
   218b0:	defff604 	addi	sp,sp,-40
   218b4:	dfc00915 	stw	ra,36(sp)
   218b8:	df000815 	stw	fp,32(sp)
   218bc:	df000804 	addi	fp,sp,32
   218c0:	e13ffd15 	stw	r4,-12(fp)
   218c4:	e17ffe15 	stw	r5,-8(fp)
   218c8:	e1bfff15 	stw	r6,-4(fp)
BaseType_t xReturn;
UBaseType_t uxSavedInterruptStatus;
Queue_t * const pxQueue = ( Queue_t * ) xQueue;
   218cc:	e0bffd17 	ldw	r2,-12(fp)
   218d0:	e0bff915 	stw	r2,-28(fp)
	safe API to ensure interrupt entry is as fast and as simple as possible.
	More information (albeit Cortex-M specific) is provided on the following
	link: http://www.freertos.org/RTOS-Cortex-M3-M4.html */
	portASSERT_IF_INTERRUPT_PRIORITY_INVALID();

	uxSavedInterruptStatus = portSET_INTERRUPT_MASK_FROM_ISR();
   218d4:	e03ffa15 	stw	zero,-24(fp)
	{
		const UBaseType_t uxMessagesWaiting = pxQueue->uxMessagesWaiting;
   218d8:	e0bff917 	ldw	r2,-28(fp)
   218dc:	10800e17 	ldw	r2,56(r2)
   218e0:	e0bffb15 	stw	r2,-20(fp)

		/* Cannot block in an ISR, so check there is data available. */
		if( uxMessagesWaiting > ( UBaseType_t ) 0 )
   218e4:	e0bffb17 	ldw	r2,-20(fp)
   218e8:	10002326 	beq	r2,zero,21978 <xQueueReceiveFromISR+0xc8>
		{
			const int8_t cRxLock = pxQueue->cRxLock;
   218ec:	e0bff917 	ldw	r2,-28(fp)
   218f0:	10801103 	ldbu	r2,68(r2)
   218f4:	e0bffc05 	stb	r2,-16(fp)

			traceQUEUE_RECEIVE_FROM_ISR( pxQueue );

			prvCopyDataFromQueue( pxQueue, pvBuffer );
   218f8:	e17ffe17 	ldw	r5,-8(fp)
   218fc:	e13ff917 	ldw	r4,-28(fp)
   21900:	0021c700 	call	21c70 <prvCopyDataFromQueue>
			pxQueue->uxMessagesWaiting = uxMessagesWaiting - 1;
   21904:	e0bffb17 	ldw	r2,-20(fp)
   21908:	10ffffc4 	addi	r3,r2,-1
   2190c:	e0bff917 	ldw	r2,-28(fp)
   21910:	10c00e15 	stw	r3,56(r2)

			/* If the queue is locked the event list will not be modified.
			Instead update the lock count so the task that unlocks the queue
			will know that an ISR has removed data while the queue was
			locked. */
			if( cRxLock == queueUNLOCKED )
   21914:	e0bffc07 	ldb	r2,-16(fp)
   21918:	10bfffd8 	cmpnei	r2,r2,-1
   2191c:	10000e1e 	bne	r2,zero,21958 <xQueueReceiveFromISR+0xa8>
			{
				if( listLIST_IS_EMPTY( &( pxQueue->xTasksWaitingToSend ) ) == pdFALSE )
   21920:	e0bff917 	ldw	r2,-28(fp)
   21924:	10800417 	ldw	r2,16(r2)
   21928:	10001026 	beq	r2,zero,2196c <xQueueReceiveFromISR+0xbc>
				{
					if( xTaskRemoveFromEventList( &( pxQueue->xTasksWaitingToSend ) ) != pdFALSE )
   2192c:	e0bff917 	ldw	r2,-28(fp)
   21930:	10800404 	addi	r2,r2,16
   21934:	1009883a 	mov	r4,r2
   21938:	0022ca80 	call	22ca8 <xTaskRemoveFromEventList>
   2193c:	10000b26 	beq	r2,zero,2196c <xQueueReceiveFromISR+0xbc>
					{
						/* The task waiting has a higher priority than us so
						force a context switch. */
						if( pxHigherPriorityTaskWoken != NULL )
   21940:	e0bfff17 	ldw	r2,-4(fp)
   21944:	10000926 	beq	r2,zero,2196c <xQueueReceiveFromISR+0xbc>
						{
							*pxHigherPriorityTaskWoken = pdTRUE;
   21948:	e0bfff17 	ldw	r2,-4(fp)
   2194c:	00c00044 	movi	r3,1
   21950:	10c00015 	stw	r3,0(r2)
   21954:	00000506 	br	2196c <xQueueReceiveFromISR+0xbc>
			}
			else
			{
				/* Increment the lock count so the task that unlocks the queue
				knows that data was removed while it was locked. */
				pxQueue->cRxLock = ( int8_t ) ( cRxLock + 1 );
   21958:	e0bffc03 	ldbu	r2,-16(fp)
   2195c:	10800044 	addi	r2,r2,1
   21960:	1007883a 	mov	r3,r2
   21964:	e0bff917 	ldw	r2,-28(fp)
   21968:	10c01105 	stb	r3,68(r2)
			}

			xReturn = pdPASS;
   2196c:	00800044 	movi	r2,1
   21970:	e0bff815 	stw	r2,-32(fp)
   21974:	00000106 	br	2197c <xQueueReceiveFromISR+0xcc>
		}
		else
		{
			xReturn = pdFAIL;
   21978:	e03ff815 	stw	zero,-32(fp)
			traceQUEUE_RECEIVE_FROM_ISR_FAILED( pxQueue );
		}
	}
	portCLEAR_INTERRUPT_MASK_FROM_ISR( uxSavedInterruptStatus );

	return xReturn;
   2197c:	e0bff817 	ldw	r2,-32(fp)
}
   21980:	e037883a 	mov	sp,fp
   21984:	dfc00117 	ldw	ra,4(sp)
   21988:	df000017 	ldw	fp,0(sp)
   2198c:	dec00204 	addi	sp,sp,8
   21990:	f800283a 	ret

00021994 <xQueuePeekFromISR>:
/*-----------------------------------------------------------*/

BaseType_t xQueuePeekFromISR( QueueHandle_t xQueue,  void * const pvBuffer )
{
   21994:	defff804 	addi	sp,sp,-32
   21998:	dfc00715 	stw	ra,28(sp)
   2199c:	df000615 	stw	fp,24(sp)
   219a0:	df000604 	addi	fp,sp,24
   219a4:	e13ffe15 	stw	r4,-8(fp)
   219a8:	e17fff15 	stw	r5,-4(fp)
BaseType_t xReturn;
UBaseType_t uxSavedInterruptStatus;
int8_t *pcOriginalReadPosition;
Queue_t * const pxQueue = ( Queue_t * ) xQueue;
   219ac:	e0bffe17 	ldw	r2,-8(fp)
   219b0:	e0bffb15 	stw	r2,-20(fp)
	safe API to ensure interrupt entry is as fast and as simple as possible.
	More information (albeit Cortex-M specific) is provided on the following
	link: http://www.freertos.org/RTOS-Cortex-M3-M4.html */
	portASSERT_IF_INTERRUPT_PRIORITY_INVALID();

	uxSavedInterruptStatus = portSET_INTERRUPT_MASK_FROM_ISR();
   219b4:	e03ffc15 	stw	zero,-16(fp)
	{
		/* Cannot block in an ISR, so check there is data available. */
		if( pxQueue->uxMessagesWaiting > ( UBaseType_t ) 0 )
   219b8:	e0bffb17 	ldw	r2,-20(fp)
   219bc:	10800e17 	ldw	r2,56(r2)
   219c0:	10000c26 	beq	r2,zero,219f4 <xQueuePeekFromISR+0x60>
		{
			traceQUEUE_PEEK_FROM_ISR( pxQueue );

			/* Remember the read position so it can be reset as nothing is
			actually being removed from the queue. */
			pcOriginalReadPosition = pxQueue->u.pcReadFrom;
   219c4:	e0bffb17 	ldw	r2,-20(fp)
   219c8:	10800317 	ldw	r2,12(r2)
   219cc:	e0bffd15 	stw	r2,-12(fp)
			prvCopyDataFromQueue( pxQueue, pvBuffer );
   219d0:	e17fff17 	ldw	r5,-4(fp)
   219d4:	e13ffb17 	ldw	r4,-20(fp)
   219d8:	0021c700 	call	21c70 <prvCopyDataFromQueue>
			pxQueue->u.pcReadFrom = pcOriginalReadPosition;
   219dc:	e0bffb17 	ldw	r2,-20(fp)
   219e0:	e0fffd17 	ldw	r3,-12(fp)
   219e4:	10c00315 	stw	r3,12(r2)

			xReturn = pdPASS;
   219e8:	00800044 	movi	r2,1
   219ec:	e0bffa15 	stw	r2,-24(fp)
   219f0:	00000106 	br	219f8 <xQueuePeekFromISR+0x64>
		}
		else
		{
			xReturn = pdFAIL;
   219f4:	e03ffa15 	stw	zero,-24(fp)
			traceQUEUE_PEEK_FROM_ISR_FAILED( pxQueue );
		}
	}
	portCLEAR_INTERRUPT_MASK_FROM_ISR( uxSavedInterruptStatus );

	return xReturn;
   219f8:	e0bffa17 	ldw	r2,-24(fp)
}
   219fc:	e037883a 	mov	sp,fp
   21a00:	dfc00117 	ldw	ra,4(sp)
   21a04:	df000017 	ldw	fp,0(sp)
   21a08:	dec00204 	addi	sp,sp,8
   21a0c:	f800283a 	ret

00021a10 <uxQueueMessagesWaiting>:
/*-----------------------------------------------------------*/

UBaseType_t uxQueueMessagesWaiting( const QueueHandle_t xQueue )
{
   21a10:	defffc04 	addi	sp,sp,-16
   21a14:	dfc00315 	stw	ra,12(sp)
   21a18:	df000215 	stw	fp,8(sp)
   21a1c:	df000204 	addi	fp,sp,8
   21a20:	e13fff15 	stw	r4,-4(fp)
UBaseType_t uxReturn;

	configASSERT( xQueue );

	taskENTER_CRITICAL();
   21a24:	002311c0 	call	2311c <vTaskEnterCritical>
	{
		uxReturn = ( ( Queue_t * ) xQueue )->uxMessagesWaiting;
   21a28:	e0bfff17 	ldw	r2,-4(fp)
   21a2c:	10800e17 	ldw	r2,56(r2)
   21a30:	e0bffe15 	stw	r2,-8(fp)
	}
	taskEXIT_CRITICAL();
   21a34:	00231700 	call	23170 <vTaskExitCritical>

	return uxReturn;
   21a38:	e0bffe17 	ldw	r2,-8(fp)
} /*lint !e818 Pointer cannot be declared const as xQueue is a typedef not pointer. */
   21a3c:	e037883a 	mov	sp,fp
   21a40:	dfc00117 	ldw	ra,4(sp)
   21a44:	df000017 	ldw	fp,0(sp)
   21a48:	dec00204 	addi	sp,sp,8
   21a4c:	f800283a 	ret

00021a50 <uxQueueSpacesAvailable>:
/*-----------------------------------------------------------*/

UBaseType_t uxQueueSpacesAvailable( const QueueHandle_t xQueue )
{
   21a50:	defffb04 	addi	sp,sp,-20
   21a54:	dfc00415 	stw	ra,16(sp)
   21a58:	df000315 	stw	fp,12(sp)
   21a5c:	df000304 	addi	fp,sp,12
   21a60:	e13fff15 	stw	r4,-4(fp)
UBaseType_t uxReturn;
Queue_t *pxQueue;

	pxQueue = ( Queue_t * ) xQueue;
   21a64:	e0bfff17 	ldw	r2,-4(fp)
   21a68:	e0bffd15 	stw	r2,-12(fp)
	configASSERT( pxQueue );

	taskENTER_CRITICAL();
   21a6c:	002311c0 	call	2311c <vTaskEnterCritical>
	{
		uxReturn = pxQueue->uxLength - pxQueue->uxMessagesWaiting;
   21a70:	e0bffd17 	ldw	r2,-12(fp)
   21a74:	10c00f17 	ldw	r3,60(r2)
   21a78:	e0bffd17 	ldw	r2,-12(fp)
   21a7c:	10800e17 	ldw	r2,56(r2)
   21a80:	1885c83a 	sub	r2,r3,r2
   21a84:	e0bffe15 	stw	r2,-8(fp)
	}
	taskEXIT_CRITICAL();
   21a88:	00231700 	call	23170 <vTaskExitCritical>

	return uxReturn;
   21a8c:	e0bffe17 	ldw	r2,-8(fp)
} /*lint !e818 Pointer cannot be declared const as xQueue is a typedef not pointer. */
   21a90:	e037883a 	mov	sp,fp
   21a94:	dfc00117 	ldw	ra,4(sp)
   21a98:	df000017 	ldw	fp,0(sp)
   21a9c:	dec00204 	addi	sp,sp,8
   21aa0:	f800283a 	ret

00021aa4 <uxQueueMessagesWaitingFromISR>:
/*-----------------------------------------------------------*/

UBaseType_t uxQueueMessagesWaitingFromISR( const QueueHandle_t xQueue )
{
   21aa4:	defffd04 	addi	sp,sp,-12
   21aa8:	df000215 	stw	fp,8(sp)
   21aac:	df000204 	addi	fp,sp,8
   21ab0:	e13fff15 	stw	r4,-4(fp)
UBaseType_t uxReturn;

	configASSERT( xQueue );

	uxReturn = ( ( Queue_t * ) xQueue )->uxMessagesWaiting;
   21ab4:	e0bfff17 	ldw	r2,-4(fp)
   21ab8:	10800e17 	ldw	r2,56(r2)
   21abc:	e0bffe15 	stw	r2,-8(fp)

	return uxReturn;
   21ac0:	e0bffe17 	ldw	r2,-8(fp)
} /*lint !e818 Pointer cannot be declared const as xQueue is a typedef not pointer. */
   21ac4:	e037883a 	mov	sp,fp
   21ac8:	df000017 	ldw	fp,0(sp)
   21acc:	dec00104 	addi	sp,sp,4
   21ad0:	f800283a 	ret

00021ad4 <vQueueDelete>:
/*-----------------------------------------------------------*/

void vQueueDelete( QueueHandle_t xQueue )
{
   21ad4:	defffc04 	addi	sp,sp,-16
   21ad8:	dfc00315 	stw	ra,12(sp)
   21adc:	df000215 	stw	fp,8(sp)
   21ae0:	df000204 	addi	fp,sp,8
   21ae4:	e13fff15 	stw	r4,-4(fp)
Queue_t * const pxQueue = ( Queue_t * ) xQueue;
   21ae8:	e0bfff17 	ldw	r2,-4(fp)
   21aec:	e0bffe15 	stw	r2,-8(fp)

	#if( ( configSUPPORT_DYNAMIC_ALLOCATION == 1 ) && ( configSUPPORT_STATIC_ALLOCATION == 0 ) )
	{
		/* The queue can only have been allocated dynamically - free it
		again. */
		vPortFree( pxQueue );
   21af0:	e13ffe17 	ldw	r4,-8(fp)
   21af4:	0020a680 	call	20a68 <vPortFree>
		/* The queue must have been statically allocated, so is not going to be
		deleted.  Avoid compiler warnings about the unused parameter. */
		( void ) pxQueue;
	}
	#endif /* configSUPPORT_DYNAMIC_ALLOCATION */
}
   21af8:	0001883a 	nop
   21afc:	e037883a 	mov	sp,fp
   21b00:	dfc00117 	ldw	ra,4(sp)
   21b04:	df000017 	ldw	fp,0(sp)
   21b08:	dec00204 	addi	sp,sp,8
   21b0c:	f800283a 	ret

00021b10 <prvCopyDataToQueue>:

#endif /* configUSE_TRACE_FACILITY */
/*-----------------------------------------------------------*/

static BaseType_t prvCopyDataToQueue( Queue_t * const pxQueue, const void *pvItemToQueue, const BaseType_t xPosition )
{
   21b10:	defff904 	addi	sp,sp,-28
   21b14:	dfc00615 	stw	ra,24(sp)
   21b18:	df000515 	stw	fp,20(sp)
   21b1c:	df000504 	addi	fp,sp,20
   21b20:	e13ffd15 	stw	r4,-12(fp)
   21b24:	e17ffe15 	stw	r5,-8(fp)
   21b28:	e1bfff15 	stw	r6,-4(fp)
BaseType_t xReturn = pdFALSE;
   21b2c:	e03ffc15 	stw	zero,-16(fp)
UBaseType_t uxMessagesWaiting;

	/* This function is called from a critical section. */

	uxMessagesWaiting = pxQueue->uxMessagesWaiting;
   21b30:	e0bffd17 	ldw	r2,-12(fp)
   21b34:	10800e17 	ldw	r2,56(r2)
   21b38:	e0bffb15 	stw	r2,-20(fp)

	if( pxQueue->uxItemSize == ( UBaseType_t ) 0 )
   21b3c:	e0bffd17 	ldw	r2,-12(fp)
   21b40:	10801017 	ldw	r2,64(r2)
   21b44:	10004026 	beq	r2,zero,21c48 <prvCopyDataToQueue+0x138>
				mtCOVERAGE_TEST_MARKER();
			}
		}
		#endif /* configUSE_MUTEXES */
	}
	else if( xPosition == queueSEND_TO_BACK )
   21b48:	e0bfff17 	ldw	r2,-4(fp)
   21b4c:	1000191e 	bne	r2,zero,21bb4 <prvCopyDataToQueue+0xa4>
	{
		( void ) memcpy( ( void * ) pxQueue->pcWriteTo, pvItemToQueue, ( size_t ) pxQueue->uxItemSize ); /*lint !e961 !e418 MISRA exception as the casts are only redundant for some ports, plus previous logic ensures a null pointer can only be passed to memcpy() if the copy size is 0. */
   21b50:	e0bffd17 	ldw	r2,-12(fp)
   21b54:	10c00217 	ldw	r3,8(r2)
   21b58:	e0bffd17 	ldw	r2,-12(fp)
   21b5c:	10801017 	ldw	r2,64(r2)
   21b60:	100d883a 	mov	r6,r2
   21b64:	e17ffe17 	ldw	r5,-8(fp)
   21b68:	1809883a 	mov	r4,r3
   21b6c:	002b6ac0 	call	2b6ac <memcpy>
		pxQueue->pcWriteTo += pxQueue->uxItemSize;
   21b70:	e0bffd17 	ldw	r2,-12(fp)
   21b74:	10c00217 	ldw	r3,8(r2)
   21b78:	e0bffd17 	ldw	r2,-12(fp)
   21b7c:	10801017 	ldw	r2,64(r2)
   21b80:	1887883a 	add	r3,r3,r2
   21b84:	e0bffd17 	ldw	r2,-12(fp)
   21b88:	10c00215 	stw	r3,8(r2)
		if( pxQueue->pcWriteTo >= pxQueue->pcTail ) /*lint !e946 MISRA exception justified as comparison of pointers is the cleanest solution. */
   21b8c:	e0bffd17 	ldw	r2,-12(fp)
   21b90:	10c00217 	ldw	r3,8(r2)
   21b94:	e0bffd17 	ldw	r2,-12(fp)
   21b98:	10800117 	ldw	r2,4(r2)
   21b9c:	18802a36 	bltu	r3,r2,21c48 <prvCopyDataToQueue+0x138>
		{
			pxQueue->pcWriteTo = pxQueue->pcHead;
   21ba0:	e0bffd17 	ldw	r2,-12(fp)
   21ba4:	10c00017 	ldw	r3,0(r2)
   21ba8:	e0bffd17 	ldw	r2,-12(fp)
   21bac:	10c00215 	stw	r3,8(r2)
   21bb0:	00002506 	br	21c48 <prvCopyDataToQueue+0x138>
			mtCOVERAGE_TEST_MARKER();
		}
	}
	else
	{
		( void ) memcpy( ( void * ) pxQueue->u.pcReadFrom, pvItemToQueue, ( size_t ) pxQueue->uxItemSize ); /*lint !e961 MISRA exception as the casts are only redundant for some ports. */
   21bb4:	e0bffd17 	ldw	r2,-12(fp)
   21bb8:	10c00317 	ldw	r3,12(r2)
   21bbc:	e0bffd17 	ldw	r2,-12(fp)
   21bc0:	10801017 	ldw	r2,64(r2)
   21bc4:	100d883a 	mov	r6,r2
   21bc8:	e17ffe17 	ldw	r5,-8(fp)
   21bcc:	1809883a 	mov	r4,r3
   21bd0:	002b6ac0 	call	2b6ac <memcpy>
		pxQueue->u.pcReadFrom -= pxQueue->uxItemSize;
   21bd4:	e0bffd17 	ldw	r2,-12(fp)
   21bd8:	10c00317 	ldw	r3,12(r2)
   21bdc:	e0bffd17 	ldw	r2,-12(fp)
   21be0:	10801017 	ldw	r2,64(r2)
   21be4:	0085c83a 	sub	r2,zero,r2
   21be8:	1887883a 	add	r3,r3,r2
   21bec:	e0bffd17 	ldw	r2,-12(fp)
   21bf0:	10c00315 	stw	r3,12(r2)
		if( pxQueue->u.pcReadFrom < pxQueue->pcHead ) /*lint !e946 MISRA exception justified as comparison of pointers is the cleanest solution. */
   21bf4:	e0bffd17 	ldw	r2,-12(fp)
   21bf8:	10c00317 	ldw	r3,12(r2)
   21bfc:	e0bffd17 	ldw	r2,-12(fp)
   21c00:	10800017 	ldw	r2,0(r2)
   21c04:	1880082e 	bgeu	r3,r2,21c28 <prvCopyDataToQueue+0x118>
		{
			pxQueue->u.pcReadFrom = ( pxQueue->pcTail - pxQueue->uxItemSize );
   21c08:	e0bffd17 	ldw	r2,-12(fp)
   21c0c:	10c00117 	ldw	r3,4(r2)
   21c10:	e0bffd17 	ldw	r2,-12(fp)
   21c14:	10801017 	ldw	r2,64(r2)
   21c18:	0085c83a 	sub	r2,zero,r2
   21c1c:	1887883a 	add	r3,r3,r2
   21c20:	e0bffd17 	ldw	r2,-12(fp)
   21c24:	10c00315 	stw	r3,12(r2)
		else
		{
			mtCOVERAGE_TEST_MARKER();
		}

		if( xPosition == queueOVERWRITE )
   21c28:	e0bfff17 	ldw	r2,-4(fp)
   21c2c:	10800098 	cmpnei	r2,r2,2
   21c30:	1000051e 	bne	r2,zero,21c48 <prvCopyDataToQueue+0x138>
		{
			if( uxMessagesWaiting > ( UBaseType_t ) 0 )
   21c34:	e0bffb17 	ldw	r2,-20(fp)
   21c38:	10000326 	beq	r2,zero,21c48 <prvCopyDataToQueue+0x138>
			{
				/* An item is not being added but overwritten, so subtract
				one from the recorded number of items in the queue so when
				one is added again below the number of recorded items remains
				correct. */
				--uxMessagesWaiting;
   21c3c:	e0bffb17 	ldw	r2,-20(fp)
   21c40:	10bfffc4 	addi	r2,r2,-1
   21c44:	e0bffb15 	stw	r2,-20(fp)
		{
			mtCOVERAGE_TEST_MARKER();
		}
	}

	pxQueue->uxMessagesWaiting = uxMessagesWaiting + 1;
   21c48:	e0bffb17 	ldw	r2,-20(fp)
   21c4c:	10c00044 	addi	r3,r2,1
   21c50:	e0bffd17 	ldw	r2,-12(fp)
   21c54:	10c00e15 	stw	r3,56(r2)

	return xReturn;
   21c58:	e0bffc17 	ldw	r2,-16(fp)
}
   21c5c:	e037883a 	mov	sp,fp
   21c60:	dfc00117 	ldw	ra,4(sp)
   21c64:	df000017 	ldw	fp,0(sp)
   21c68:	dec00204 	addi	sp,sp,8
   21c6c:	f800283a 	ret

00021c70 <prvCopyDataFromQueue>:
/*-----------------------------------------------------------*/

static void prvCopyDataFromQueue( Queue_t * const pxQueue, void * const pvBuffer )
{
   21c70:	defffc04 	addi	sp,sp,-16
   21c74:	dfc00315 	stw	ra,12(sp)
   21c78:	df000215 	stw	fp,8(sp)
   21c7c:	df000204 	addi	fp,sp,8
   21c80:	e13ffe15 	stw	r4,-8(fp)
   21c84:	e17fff15 	stw	r5,-4(fp)
	if( pxQueue->uxItemSize != ( UBaseType_t ) 0 )
   21c88:	e0bffe17 	ldw	r2,-8(fp)
   21c8c:	10801017 	ldw	r2,64(r2)
   21c90:	10001826 	beq	r2,zero,21cf4 <prvCopyDataFromQueue+0x84>
	{
		pxQueue->u.pcReadFrom += pxQueue->uxItemSize;
   21c94:	e0bffe17 	ldw	r2,-8(fp)
   21c98:	10c00317 	ldw	r3,12(r2)
   21c9c:	e0bffe17 	ldw	r2,-8(fp)
   21ca0:	10801017 	ldw	r2,64(r2)
   21ca4:	1887883a 	add	r3,r3,r2
   21ca8:	e0bffe17 	ldw	r2,-8(fp)
   21cac:	10c00315 	stw	r3,12(r2)
		if( pxQueue->u.pcReadFrom >= pxQueue->pcTail ) /*lint !e946 MISRA exception justified as use of the relational operator is the cleanest solutions. */
   21cb0:	e0bffe17 	ldw	r2,-8(fp)
   21cb4:	10c00317 	ldw	r3,12(r2)
   21cb8:	e0bffe17 	ldw	r2,-8(fp)
   21cbc:	10800117 	ldw	r2,4(r2)
   21cc0:	18800436 	bltu	r3,r2,21cd4 <prvCopyDataFromQueue+0x64>
		{
			pxQueue->u.pcReadFrom = pxQueue->pcHead;
   21cc4:	e0bffe17 	ldw	r2,-8(fp)
   21cc8:	10c00017 	ldw	r3,0(r2)
   21ccc:	e0bffe17 	ldw	r2,-8(fp)
   21cd0:	10c00315 	stw	r3,12(r2)
		}
		else
		{
			mtCOVERAGE_TEST_MARKER();
		}
		( void ) memcpy( ( void * ) pvBuffer, ( void * ) pxQueue->u.pcReadFrom, ( size_t ) pxQueue->uxItemSize ); /*lint !e961 !e418 MISRA exception as the casts are only redundant for some ports.  Also previous logic ensures a null pointer can only be passed to memcpy() when the count is 0. */
   21cd4:	e0bffe17 	ldw	r2,-8(fp)
   21cd8:	10c00317 	ldw	r3,12(r2)
   21cdc:	e0bffe17 	ldw	r2,-8(fp)
   21ce0:	10801017 	ldw	r2,64(r2)
   21ce4:	100d883a 	mov	r6,r2
   21ce8:	180b883a 	mov	r5,r3
   21cec:	e13fff17 	ldw	r4,-4(fp)
   21cf0:	002b6ac0 	call	2b6ac <memcpy>
	}
}
   21cf4:	0001883a 	nop
   21cf8:	e037883a 	mov	sp,fp
   21cfc:	dfc00117 	ldw	ra,4(sp)
   21d00:	df000017 	ldw	fp,0(sp)
   21d04:	dec00204 	addi	sp,sp,8
   21d08:	f800283a 	ret

00021d0c <prvUnlockQueue>:
/*-----------------------------------------------------------*/

static void prvUnlockQueue( Queue_t * const pxQueue )
{
   21d0c:	defffc04 	addi	sp,sp,-16
   21d10:	dfc00315 	stw	ra,12(sp)
   21d14:	df000215 	stw	fp,8(sp)
   21d18:	df000204 	addi	fp,sp,8
   21d1c:	e13fff15 	stw	r4,-4(fp)

	/* The lock counts contains the number of extra data items placed or
	removed from the queue while the queue was locked.  When a queue is
	locked items can be added or removed, but the event lists cannot be
	updated. */
	taskENTER_CRITICAL();
   21d20:	002311c0 	call	2311c <vTaskEnterCritical>
	{
		int8_t cTxLock = pxQueue->cTxLock;
   21d24:	e0bfff17 	ldw	r2,-4(fp)
   21d28:	10801143 	ldbu	r2,69(r2)
   21d2c:	e0bffe05 	stb	r2,-8(fp)

		/* See if data was added to the queue while it was locked. */
		while( cTxLock > queueLOCKED_UNMODIFIED )
   21d30:	00000c06 	br	21d64 <prvUnlockQueue+0x58>
			}
			#else /* configUSE_QUEUE_SETS */
			{
				/* Tasks that are removed from the event list will get added to
				the pending ready list as the scheduler is still suspended. */
				if( listLIST_IS_EMPTY( &( pxQueue->xTasksWaitingToReceive ) ) == pdFALSE )
   21d34:	e0bfff17 	ldw	r2,-4(fp)
   21d38:	10800917 	ldw	r2,36(r2)
   21d3c:	10000c26 	beq	r2,zero,21d70 <prvUnlockQueue+0x64>
				{
					if( xTaskRemoveFromEventList( &( pxQueue->xTasksWaitingToReceive ) ) != pdFALSE )
   21d40:	e0bfff17 	ldw	r2,-4(fp)
   21d44:	10800904 	addi	r2,r2,36
   21d48:	1009883a 	mov	r4,r2
   21d4c:	0022ca80 	call	22ca8 <xTaskRemoveFromEventList>
   21d50:	10000126 	beq	r2,zero,21d58 <prvUnlockQueue+0x4c>
					{
						/* The task waiting has a higher priority so record that
						a context switch is required. */
						vTaskMissedYield();
   21d54:	0022f8c0 	call	22f8c <vTaskMissedYield>
					break;
				}
			}
			#endif /* configUSE_QUEUE_SETS */

			--cTxLock;
   21d58:	e0bffe03 	ldbu	r2,-8(fp)
   21d5c:	10bfffc4 	addi	r2,r2,-1
   21d60:	e0bffe05 	stb	r2,-8(fp)
	taskENTER_CRITICAL();
	{
		int8_t cTxLock = pxQueue->cTxLock;

		/* See if data was added to the queue while it was locked. */
		while( cTxLock > queueLOCKED_UNMODIFIED )
   21d64:	e0bffe07 	ldb	r2,-8(fp)
   21d68:	00bff216 	blt	zero,r2,21d34 <__reset+0xfff81d34>
   21d6c:	00000106 	br	21d74 <prvUnlockQueue+0x68>
						mtCOVERAGE_TEST_MARKER();
					}
				}
				else
				{
					break;
   21d70:	0001883a 	nop
			#endif /* configUSE_QUEUE_SETS */

			--cTxLock;
		}

		pxQueue->cTxLock = queueUNLOCKED;
   21d74:	e0bfff17 	ldw	r2,-4(fp)
   21d78:	00ffffc4 	movi	r3,-1
   21d7c:	10c01145 	stb	r3,69(r2)
	}
	taskEXIT_CRITICAL();
   21d80:	00231700 	call	23170 <vTaskExitCritical>

	/* Do the same for the Rx lock. */
	taskENTER_CRITICAL();
   21d84:	002311c0 	call	2311c <vTaskEnterCritical>
	{
		int8_t cRxLock = pxQueue->cRxLock;
   21d88:	e0bfff17 	ldw	r2,-4(fp)
   21d8c:	10801103 	ldbu	r2,68(r2)
   21d90:	e0bffe45 	stb	r2,-7(fp)

		while( cRxLock > queueLOCKED_UNMODIFIED )
   21d94:	00000c06 	br	21dc8 <prvUnlockQueue+0xbc>
		{
			if( listLIST_IS_EMPTY( &( pxQueue->xTasksWaitingToSend ) ) == pdFALSE )
   21d98:	e0bfff17 	ldw	r2,-4(fp)
   21d9c:	10800417 	ldw	r2,16(r2)
   21da0:	10000c26 	beq	r2,zero,21dd4 <prvUnlockQueue+0xc8>
			{
				if( xTaskRemoveFromEventList( &( pxQueue->xTasksWaitingToSend ) ) != pdFALSE )
   21da4:	e0bfff17 	ldw	r2,-4(fp)
   21da8:	10800404 	addi	r2,r2,16
   21dac:	1009883a 	mov	r4,r2
   21db0:	0022ca80 	call	22ca8 <xTaskRemoveFromEventList>
   21db4:	10000126 	beq	r2,zero,21dbc <prvUnlockQueue+0xb0>
				{
					vTaskMissedYield();
   21db8:	0022f8c0 	call	22f8c <vTaskMissedYield>
				else
				{
					mtCOVERAGE_TEST_MARKER();
				}

				--cRxLock;
   21dbc:	e0bffe43 	ldbu	r2,-7(fp)
   21dc0:	10bfffc4 	addi	r2,r2,-1
   21dc4:	e0bffe45 	stb	r2,-7(fp)
	/* Do the same for the Rx lock. */
	taskENTER_CRITICAL();
	{
		int8_t cRxLock = pxQueue->cRxLock;

		while( cRxLock > queueLOCKED_UNMODIFIED )
   21dc8:	e0bffe47 	ldb	r2,-7(fp)
   21dcc:	00bff216 	blt	zero,r2,21d98 <__reset+0xfff81d98>
   21dd0:	00000106 	br	21dd8 <prvUnlockQueue+0xcc>

				--cRxLock;
			}
			else
			{
				break;
   21dd4:	0001883a 	nop
			}
		}

		pxQueue->cRxLock = queueUNLOCKED;
   21dd8:	e0bfff17 	ldw	r2,-4(fp)
   21ddc:	00ffffc4 	movi	r3,-1
   21de0:	10c01105 	stb	r3,68(r2)
	}
	taskEXIT_CRITICAL();
   21de4:	00231700 	call	23170 <vTaskExitCritical>
}
   21de8:	0001883a 	nop
   21dec:	e037883a 	mov	sp,fp
   21df0:	dfc00117 	ldw	ra,4(sp)
   21df4:	df000017 	ldw	fp,0(sp)
   21df8:	dec00204 	addi	sp,sp,8
   21dfc:	f800283a 	ret

00021e00 <prvIsQueueEmpty>:
/*-----------------------------------------------------------*/

static BaseType_t prvIsQueueEmpty( const Queue_t *pxQueue )
{
   21e00:	defffc04 	addi	sp,sp,-16
   21e04:	dfc00315 	stw	ra,12(sp)
   21e08:	df000215 	stw	fp,8(sp)
   21e0c:	df000204 	addi	fp,sp,8
   21e10:	e13fff15 	stw	r4,-4(fp)
BaseType_t xReturn;

	taskENTER_CRITICAL();
   21e14:	002311c0 	call	2311c <vTaskEnterCritical>
	{
		if( pxQueue->uxMessagesWaiting == ( UBaseType_t )  0 )
   21e18:	e0bfff17 	ldw	r2,-4(fp)
   21e1c:	10800e17 	ldw	r2,56(r2)
   21e20:	1000031e 	bne	r2,zero,21e30 <prvIsQueueEmpty+0x30>
		{
			xReturn = pdTRUE;
   21e24:	00800044 	movi	r2,1
   21e28:	e0bffe15 	stw	r2,-8(fp)
   21e2c:	00000106 	br	21e34 <prvIsQueueEmpty+0x34>
		}
		else
		{
			xReturn = pdFALSE;
   21e30:	e03ffe15 	stw	zero,-8(fp)
		}
	}
	taskEXIT_CRITICAL();
   21e34:	00231700 	call	23170 <vTaskExitCritical>

	return xReturn;
   21e38:	e0bffe17 	ldw	r2,-8(fp)
}
   21e3c:	e037883a 	mov	sp,fp
   21e40:	dfc00117 	ldw	ra,4(sp)
   21e44:	df000017 	ldw	fp,0(sp)
   21e48:	dec00204 	addi	sp,sp,8
   21e4c:	f800283a 	ret

00021e50 <xQueueIsQueueEmptyFromISR>:
/*-----------------------------------------------------------*/

BaseType_t xQueueIsQueueEmptyFromISR( const QueueHandle_t xQueue )
{
   21e50:	defffd04 	addi	sp,sp,-12
   21e54:	df000215 	stw	fp,8(sp)
   21e58:	df000204 	addi	fp,sp,8
   21e5c:	e13fff15 	stw	r4,-4(fp)
BaseType_t xReturn;

	configASSERT( xQueue );
	if( ( ( Queue_t * ) xQueue )->uxMessagesWaiting == ( UBaseType_t ) 0 )
   21e60:	e0bfff17 	ldw	r2,-4(fp)
   21e64:	10800e17 	ldw	r2,56(r2)
   21e68:	1000031e 	bne	r2,zero,21e78 <xQueueIsQueueEmptyFromISR+0x28>
	{
		xReturn = pdTRUE;
   21e6c:	00800044 	movi	r2,1
   21e70:	e0bffe15 	stw	r2,-8(fp)
   21e74:	00000106 	br	21e7c <xQueueIsQueueEmptyFromISR+0x2c>
	}
	else
	{
		xReturn = pdFALSE;
   21e78:	e03ffe15 	stw	zero,-8(fp)
	}

	return xReturn;
   21e7c:	e0bffe17 	ldw	r2,-8(fp)
} /*lint !e818 xQueue could not be pointer to const because it is a typedef. */
   21e80:	e037883a 	mov	sp,fp
   21e84:	df000017 	ldw	fp,0(sp)
   21e88:	dec00104 	addi	sp,sp,4
   21e8c:	f800283a 	ret

00021e90 <prvIsQueueFull>:
/*-----------------------------------------------------------*/

static BaseType_t prvIsQueueFull( const Queue_t *pxQueue )
{
   21e90:	defffc04 	addi	sp,sp,-16
   21e94:	dfc00315 	stw	ra,12(sp)
   21e98:	df000215 	stw	fp,8(sp)
   21e9c:	df000204 	addi	fp,sp,8
   21ea0:	e13fff15 	stw	r4,-4(fp)
BaseType_t xReturn;

	taskENTER_CRITICAL();
   21ea4:	002311c0 	call	2311c <vTaskEnterCritical>
	{
		if( pxQueue->uxMessagesWaiting == pxQueue->uxLength )
   21ea8:	e0bfff17 	ldw	r2,-4(fp)
   21eac:	10c00e17 	ldw	r3,56(r2)
   21eb0:	e0bfff17 	ldw	r2,-4(fp)
   21eb4:	10800f17 	ldw	r2,60(r2)
   21eb8:	1880031e 	bne	r3,r2,21ec8 <prvIsQueueFull+0x38>
		{
			xReturn = pdTRUE;
   21ebc:	00800044 	movi	r2,1
   21ec0:	e0bffe15 	stw	r2,-8(fp)
   21ec4:	00000106 	br	21ecc <prvIsQueueFull+0x3c>
		}
		else
		{
			xReturn = pdFALSE;
   21ec8:	e03ffe15 	stw	zero,-8(fp)
		}
	}
	taskEXIT_CRITICAL();
   21ecc:	00231700 	call	23170 <vTaskExitCritical>

	return xReturn;
   21ed0:	e0bffe17 	ldw	r2,-8(fp)
}
   21ed4:	e037883a 	mov	sp,fp
   21ed8:	dfc00117 	ldw	ra,4(sp)
   21edc:	df000017 	ldw	fp,0(sp)
   21ee0:	dec00204 	addi	sp,sp,8
   21ee4:	f800283a 	ret

00021ee8 <xQueueIsQueueFullFromISR>:
/*-----------------------------------------------------------*/

BaseType_t xQueueIsQueueFullFromISR( const QueueHandle_t xQueue )
{
   21ee8:	defffd04 	addi	sp,sp,-12
   21eec:	df000215 	stw	fp,8(sp)
   21ef0:	df000204 	addi	fp,sp,8
   21ef4:	e13fff15 	stw	r4,-4(fp)
BaseType_t xReturn;

	configASSERT( xQueue );
	if( ( ( Queue_t * ) xQueue )->uxMessagesWaiting == ( ( Queue_t * ) xQueue )->uxLength )
   21ef8:	e0bfff17 	ldw	r2,-4(fp)
   21efc:	10c00e17 	ldw	r3,56(r2)
   21f00:	e0bfff17 	ldw	r2,-4(fp)
   21f04:	10800f17 	ldw	r2,60(r2)
   21f08:	1880031e 	bne	r3,r2,21f18 <xQueueIsQueueFullFromISR+0x30>
	{
		xReturn = pdTRUE;
   21f0c:	00800044 	movi	r2,1
   21f10:	e0bffe15 	stw	r2,-8(fp)
   21f14:	00000106 	br	21f1c <xQueueIsQueueFullFromISR+0x34>
	}
	else
	{
		xReturn = pdFALSE;
   21f18:	e03ffe15 	stw	zero,-8(fp)
	}

	return xReturn;
   21f1c:	e0bffe17 	ldw	r2,-8(fp)
} /*lint !e818 xQueue could not be pointer to const because it is a typedef. */
   21f20:	e037883a 	mov	sp,fp
   21f24:	df000017 	ldw	fp,0(sp)
   21f28:	dec00104 	addi	sp,sp,4
   21f2c:	f800283a 	ret

00021f30 <xTaskCreate>:
							const char * const pcName,
							const uint16_t usStackDepth,
							void * const pvParameters,
							UBaseType_t uxPriority,
							TaskHandle_t * const pxCreatedTask ) /*lint !e971 Unqualified char types are allowed for strings and single characters only. */
	{
   21f30:	defff304 	addi	sp,sp,-52
   21f34:	dfc00c15 	stw	ra,48(sp)
   21f38:	df000b15 	stw	fp,44(sp)
   21f3c:	df000b04 	addi	fp,sp,44
   21f40:	e13ffc15 	stw	r4,-16(fp)
   21f44:	e17ffd15 	stw	r5,-12(fp)
   21f48:	3005883a 	mov	r2,r6
   21f4c:	e1ffff15 	stw	r7,-4(fp)
   21f50:	e0bffe0d 	sth	r2,-8(fp)
		#else /* portSTACK_GROWTH */
		{
		StackType_t *pxStack;

			/* Allocate space for the stack used by the task being created. */
			pxStack = ( StackType_t * ) pvPortMalloc( ( ( ( size_t ) usStackDepth ) * sizeof( StackType_t ) ) ); /*lint !e961 MISRA exception as the casts are only redundant for some ports. */
   21f54:	e0bffe0b 	ldhu	r2,-8(fp)
   21f58:	1085883a 	add	r2,r2,r2
   21f5c:	1085883a 	add	r2,r2,r2
   21f60:	1009883a 	mov	r4,r2
   21f64:	00209ac0 	call	209ac <pvPortMalloc>
   21f68:	e0bffb15 	stw	r2,-20(fp)

			if( pxStack != NULL )
   21f6c:	e0bffb17 	ldw	r2,-20(fp)
   21f70:	10000c26 	beq	r2,zero,21fa4 <xTaskCreate+0x74>
			{
				/* Allocate space for the TCB. */
				pxNewTCB = ( TCB_t * ) pvPortMalloc( sizeof( TCB_t ) ); /*lint !e961 MISRA exception as the casts are only redundant for some paths. */
   21f74:	01001204 	movi	r4,72
   21f78:	00209ac0 	call	209ac <pvPortMalloc>
   21f7c:	e0bff915 	stw	r2,-28(fp)

				if( pxNewTCB != NULL )
   21f80:	e0bff917 	ldw	r2,-28(fp)
   21f84:	10000426 	beq	r2,zero,21f98 <xTaskCreate+0x68>
				{
					/* Store the stack location in the TCB. */
					pxNewTCB->pxStack = pxStack;
   21f88:	e0bff917 	ldw	r2,-28(fp)
   21f8c:	e0fffb17 	ldw	r3,-20(fp)
   21f90:	10c00c15 	stw	r3,48(r2)
   21f94:	00000406 	br	21fa8 <xTaskCreate+0x78>
				}
				else
				{
					/* The stack cannot be used as the TCB was not created.  Free
					it again. */
					vPortFree( pxStack );
   21f98:	e13ffb17 	ldw	r4,-20(fp)
   21f9c:	0020a680 	call	20a68 <vPortFree>
   21fa0:	00000106 	br	21fa8 <xTaskCreate+0x78>
				}
			}
			else
			{
				pxNewTCB = NULL;
   21fa4:	e03ff915 	stw	zero,-28(fp)
			}
		}
		#endif /* portSTACK_GROWTH */

		if( pxNewTCB != NULL )
   21fa8:	e0bff917 	ldw	r2,-28(fp)
   21fac:	10001226 	beq	r2,zero,21ff8 <xTaskCreate+0xc8>
				task was created dynamically in case it is later deleted. */
				pxNewTCB->ucStaticallyAllocated = tskDYNAMICALLY_ALLOCATED_STACK_AND_TCB;
			}
			#endif /* configSUPPORT_STATIC_ALLOCATION */

			prvInitialiseNewTask( pxTaskCode, pcName, ( uint32_t ) usStackDepth, pvParameters, uxPriority, pxCreatedTask, pxNewTCB, NULL );
   21fb0:	e0fffe0b 	ldhu	r3,-8(fp)
   21fb4:	d8000315 	stw	zero,12(sp)
   21fb8:	e0bff917 	ldw	r2,-28(fp)
   21fbc:	d8800215 	stw	r2,8(sp)
   21fc0:	e0800317 	ldw	r2,12(fp)
   21fc4:	d8800115 	stw	r2,4(sp)
   21fc8:	e0800217 	ldw	r2,8(fp)
   21fcc:	d8800015 	stw	r2,0(sp)
   21fd0:	e1ffff17 	ldw	r7,-4(fp)
   21fd4:	180d883a 	mov	r6,r3
   21fd8:	e17ffd17 	ldw	r5,-12(fp)
   21fdc:	e13ffc17 	ldw	r4,-16(fp)
   21fe0:	00220180 	call	22018 <prvInitialiseNewTask>
			prvAddNewTaskToReadyList( pxNewTCB );
   21fe4:	e13ff917 	ldw	r4,-28(fp)
   21fe8:	00221b00 	call	221b0 <prvAddNewTaskToReadyList>
			xReturn = pdPASS;
   21fec:	00800044 	movi	r2,1
   21ff0:	e0bffa15 	stw	r2,-24(fp)
   21ff4:	00000206 	br	22000 <xTaskCreate+0xd0>
		}
		else
		{
			xReturn = errCOULD_NOT_ALLOCATE_REQUIRED_MEMORY;
   21ff8:	00bfffc4 	movi	r2,-1
   21ffc:	e0bffa15 	stw	r2,-24(fp)
		}

		return xReturn;
   22000:	e0bffa17 	ldw	r2,-24(fp)
	}
   22004:	e037883a 	mov	sp,fp
   22008:	dfc00117 	ldw	ra,4(sp)
   2200c:	df000017 	ldw	fp,0(sp)
   22010:	dec00204 	addi	sp,sp,8
   22014:	f800283a 	ret

00022018 <prvInitialiseNewTask>:
									void * const pvParameters,
									UBaseType_t uxPriority,
									TaskHandle_t * const pxCreatedTask,
									TCB_t *pxNewTCB,
									const MemoryRegion_t * const xRegions ) /*lint !e971 Unqualified char types are allowed for strings and single characters only. */
{
   22018:	defff804 	addi	sp,sp,-32
   2201c:	dfc00715 	stw	ra,28(sp)
   22020:	df000615 	stw	fp,24(sp)
   22024:	df000604 	addi	fp,sp,24
   22028:	e13ffc15 	stw	r4,-16(fp)
   2202c:	e17ffd15 	stw	r5,-12(fp)
   22030:	e1bffe15 	stw	r6,-8(fp)
   22034:	e1ffff15 	stw	r7,-4(fp)
	grows from high memory to low (as per the 80x86) or vice versa.
	portSTACK_GROWTH is used to make the result positive or negative as required
	by the port. */
	#if( portSTACK_GROWTH < 0 )
	{
		pxTopOfStack = pxNewTCB->pxStack + ( ulStackDepth - ( uint32_t ) 1 );
   22038:	e0800417 	ldw	r2,16(fp)
   2203c:	10c00c17 	ldw	r3,48(r2)
   22040:	e13ffe17 	ldw	r4,-8(fp)
   22044:	00900034 	movhi	r2,16384
   22048:	10bfffc4 	addi	r2,r2,-1
   2204c:	2085883a 	add	r2,r4,r2
   22050:	1085883a 	add	r2,r2,r2
   22054:	1085883a 	add	r2,r2,r2
   22058:	1885883a 	add	r2,r3,r2
   2205c:	e0bffb15 	stw	r2,-20(fp)
		pxTopOfStack = ( StackType_t * ) ( ( ( portPOINTER_SIZE_TYPE ) pxTopOfStack ) & ( ~( ( portPOINTER_SIZE_TYPE ) portBYTE_ALIGNMENT_MASK ) ) ); /*lint !e923 MISRA exception.  Avoiding casts between pointers and integers is not practical.  Size differences accounted for using portPOINTER_SIZE_TYPE type. */
   22060:	e0fffb17 	ldw	r3,-20(fp)
   22064:	00bfff04 	movi	r2,-4
   22068:	1884703a 	and	r2,r3,r2
   2206c:	e0bffb15 	stw	r2,-20(fp)
		pxNewTCB->pxEndOfStack = pxNewTCB->pxStack + ( ulStackDepth - ( uint32_t ) 1 );
	}
	#endif /* portSTACK_GROWTH */

	/* Store the task name in the TCB. */
	for( x = ( UBaseType_t ) 0; x < ( UBaseType_t ) configMAX_TASK_NAME_LEN; x++ )
   22070:	e03ffa15 	stw	zero,-24(fp)
   22074:	00001406 	br	220c8 <prvInitialiseNewTask+0xb0>
	{
		pxNewTCB->pcTaskName[ x ] = pcName[ x ];
   22078:	e0fffd17 	ldw	r3,-12(fp)
   2207c:	e0bffa17 	ldw	r2,-24(fp)
   22080:	1885883a 	add	r2,r3,r2
   22084:	10c00003 	ldbu	r3,0(r2)
   22088:	e1000417 	ldw	r4,16(fp)
   2208c:	e0bffa17 	ldw	r2,-24(fp)
   22090:	2085883a 	add	r2,r4,r2
   22094:	10800d04 	addi	r2,r2,52
   22098:	10c00005 	stb	r3,0(r2)

		/* Don't copy all configMAX_TASK_NAME_LEN if the string is shorter than
		configMAX_TASK_NAME_LEN characters just in case the memory after the
		string is not accessible (extremely unlikely). */
		if( pcName[ x ] == 0x00 )
   2209c:	e0fffd17 	ldw	r3,-12(fp)
   220a0:	e0bffa17 	ldw	r2,-24(fp)
   220a4:	1885883a 	add	r2,r3,r2
   220a8:	10800003 	ldbu	r2,0(r2)
   220ac:	10803fcc 	andi	r2,r2,255
   220b0:	1080201c 	xori	r2,r2,128
   220b4:	10bfe004 	addi	r2,r2,-128
   220b8:	10000726 	beq	r2,zero,220d8 <prvInitialiseNewTask+0xc0>
		pxNewTCB->pxEndOfStack = pxNewTCB->pxStack + ( ulStackDepth - ( uint32_t ) 1 );
	}
	#endif /* portSTACK_GROWTH */

	/* Store the task name in the TCB. */
	for( x = ( UBaseType_t ) 0; x < ( UBaseType_t ) configMAX_TASK_NAME_LEN; x++ )
   220bc:	e0bffa17 	ldw	r2,-24(fp)
   220c0:	10800044 	addi	r2,r2,1
   220c4:	e0bffa15 	stw	r2,-24(fp)
   220c8:	e0bffa17 	ldw	r2,-24(fp)
   220cc:	10800230 	cmpltui	r2,r2,8
   220d0:	103fe91e 	bne	r2,zero,22078 <__reset+0xfff82078>
   220d4:	00000106 	br	220dc <prvInitialiseNewTask+0xc4>
		/* Don't copy all configMAX_TASK_NAME_LEN if the string is shorter than
		configMAX_TASK_NAME_LEN characters just in case the memory after the
		string is not accessible (extremely unlikely). */
		if( pcName[ x ] == 0x00 )
		{
			break;
   220d8:	0001883a 	nop
		}
	}

	/* Ensure the name string is terminated in the case that the string length
	was greater or equal to configMAX_TASK_NAME_LEN. */
	pxNewTCB->pcTaskName[ configMAX_TASK_NAME_LEN - 1 ] = '\0';
   220dc:	e0800417 	ldw	r2,16(fp)
   220e0:	10000ec5 	stb	zero,59(r2)

	/* This is used as an array index so must ensure it's not too large.  First
	remove the privilege bit if one is present. */
	if( uxPriority >= ( UBaseType_t ) configMAX_PRIORITIES )
   220e4:	e0800217 	ldw	r2,8(fp)
   220e8:	10800170 	cmpltui	r2,r2,5
   220ec:	1000021e 	bne	r2,zero,220f8 <prvInitialiseNewTask+0xe0>
	{
		uxPriority = ( UBaseType_t ) configMAX_PRIORITIES - ( UBaseType_t ) 1U;
   220f0:	00800104 	movi	r2,4
   220f4:	e0800215 	stw	r2,8(fp)
	else
	{
		mtCOVERAGE_TEST_MARKER();
	}

	pxNewTCB->uxPriority = uxPriority;
   220f8:	e0800417 	ldw	r2,16(fp)
   220fc:	e0c00217 	ldw	r3,8(fp)
   22100:	10c00b15 	stw	r3,44(r2)
		pxNewTCB->uxBasePriority = uxPriority;
		pxNewTCB->uxMutexesHeld = 0;
	}
	#endif /* configUSE_MUTEXES */

	vListInitialiseItem( &( pxNewTCB->xStateListItem ) );
   22104:	e0800417 	ldw	r2,16(fp)
   22108:	10800104 	addi	r2,r2,4
   2210c:	1009883a 	mov	r4,r2
   22110:	0020b400 	call	20b40 <vListInitialiseItem>
	vListInitialiseItem( &( pxNewTCB->xEventListItem ) );
   22114:	e0800417 	ldw	r2,16(fp)
   22118:	10800604 	addi	r2,r2,24
   2211c:	1009883a 	mov	r4,r2
   22120:	0020b400 	call	20b40 <vListInitialiseItem>

	/* Set the pxNewTCB as a link back from the ListItem_t.  This is so we can get
	back to	the containing TCB from a generic item in a list. */
	listSET_LIST_ITEM_OWNER( &( pxNewTCB->xStateListItem ), pxNewTCB );
   22124:	e0800417 	ldw	r2,16(fp)
   22128:	e0c00417 	ldw	r3,16(fp)
   2212c:	10c00415 	stw	r3,16(r2)

	/* Event lists are always in priority order. */
	listSET_LIST_ITEM_VALUE( &( pxNewTCB->xEventListItem ), ( TickType_t ) configMAX_PRIORITIES - ( TickType_t ) uxPriority ); /*lint !e961 MISRA exception as the casts are only redundant for some ports. */
   22130:	00c00144 	movi	r3,5
   22134:	e0800217 	ldw	r2,8(fp)
   22138:	1887c83a 	sub	r3,r3,r2
   2213c:	e0800417 	ldw	r2,16(fp)
   22140:	10c00615 	stw	r3,24(r2)
	listSET_LIST_ITEM_OWNER( &( pxNewTCB->xEventListItem ), pxNewTCB );
   22144:	e0800417 	ldw	r2,16(fp)
   22148:	e0c00417 	ldw	r3,16(fp)
   2214c:	10c00915 	stw	r3,36(r2)

	#if ( portCRITICAL_NESTING_IN_TCB == 1 )
	{
		pxNewTCB->uxCriticalNesting = ( UBaseType_t ) 0U;
   22150:	e0800417 	ldw	r2,16(fp)
   22154:	10000f15 	stw	zero,60(r2)
	}
	#endif

	#if ( configUSE_TASK_NOTIFICATIONS == 1 )
	{
		pxNewTCB->ulNotifiedValue = 0;
   22158:	e0800417 	ldw	r2,16(fp)
   2215c:	10001015 	stw	zero,64(r2)
		pxNewTCB->ucNotifyState = taskNOT_WAITING_NOTIFICATION;
   22160:	e0800417 	ldw	r2,16(fp)
   22164:	10001105 	stb	zero,68(r2)
	{
		pxNewTCB->pxTopOfStack = pxPortInitialiseStack( pxTopOfStack, pxTaskCode, pvParameters, xRunPrivileged );
	}
	#else /* portUSING_MPU_WRAPPERS */
	{
		pxNewTCB->pxTopOfStack = pxPortInitialiseStack( pxTopOfStack, pxTaskCode, pvParameters );
   22168:	e1bfff17 	ldw	r6,-4(fp)
   2216c:	e17ffc17 	ldw	r5,-16(fp)
   22170:	e13ffb17 	ldw	r4,-20(fp)
   22174:	0020d940 	call	20d94 <pxPortInitialiseStack>
   22178:	1007883a 	mov	r3,r2
   2217c:	e0800417 	ldw	r2,16(fp)
   22180:	10c00015 	stw	r3,0(r2)
	}
	#endif /* portUSING_MPU_WRAPPERS */

	if( ( void * ) pxCreatedTask != NULL )
   22184:	e0800317 	ldw	r2,12(fp)
   22188:	10000326 	beq	r2,zero,22198 <prvInitialiseNewTask+0x180>
	{
		/* Pass the handle out in an anonymous way.  The handle can be used to
		change the created task's priority, delete the created task, etc.*/
		*pxCreatedTask = ( TaskHandle_t ) pxNewTCB;
   2218c:	e0800317 	ldw	r2,12(fp)
   22190:	e0c00417 	ldw	r3,16(fp)
   22194:	10c00015 	stw	r3,0(r2)
	}
	else
	{
		mtCOVERAGE_TEST_MARKER();
	}
}
   22198:	0001883a 	nop
   2219c:	e037883a 	mov	sp,fp
   221a0:	dfc00117 	ldw	ra,4(sp)
   221a4:	df000017 	ldw	fp,0(sp)
   221a8:	dec00204 	addi	sp,sp,8
   221ac:	f800283a 	ret

000221b0 <prvAddNewTaskToReadyList>:
/*-----------------------------------------------------------*/

static void prvAddNewTaskToReadyList( TCB_t *pxNewTCB )
{
   221b0:	defffd04 	addi	sp,sp,-12
   221b4:	dfc00215 	stw	ra,8(sp)
   221b8:	df000115 	stw	fp,4(sp)
   221bc:	df000104 	addi	fp,sp,4
   221c0:	e13fff15 	stw	r4,-4(fp)
	/* Ensure interrupts don't access the task lists while the lists are being
	updated. */
	taskENTER_CRITICAL();
   221c4:	002311c0 	call	2311c <vTaskEnterCritical>
	{
		uxCurrentNumberOfTasks++;
   221c8:	d0a01f17 	ldw	r2,-32644(gp)
   221cc:	10800044 	addi	r2,r2,1
   221d0:	d0a01f15 	stw	r2,-32644(gp)
		if( pxCurrentTCB == NULL )
   221d4:	d0a01c17 	ldw	r2,-32656(gp)
   221d8:	1000071e 	bne	r2,zero,221f8 <prvAddNewTaskToReadyList+0x48>
		{
			/* There are no other tasks, or all the other tasks are in
			the suspended state - make this the current task. */
			pxCurrentTCB = pxNewTCB;
   221dc:	e0bfff17 	ldw	r2,-4(fp)
   221e0:	d0a01c15 	stw	r2,-32656(gp)

			if( uxCurrentNumberOfTasks == ( UBaseType_t ) 1 )
   221e4:	d0a01f17 	ldw	r2,-32644(gp)
   221e8:	10800058 	cmpnei	r2,r2,1
   221ec:	10000b1e 	bne	r2,zero,2221c <prvAddNewTaskToReadyList+0x6c>
			{
				/* This is the first task to be created so do the preliminary
				initialisation required.  We will not recover if this call
				fails, but we will report the failure. */
				prvInitialiseTaskLists();
   221f0:	0022fe80 	call	22fe8 <prvInitialiseTaskLists>
   221f4:	00000906 	br	2221c <prvAddNewTaskToReadyList+0x6c>
		else
		{
			/* If the scheduler is not already running, make this task the
			current task if it is the highest priority task to be created
			so far. */
			if( xSchedulerRunning == pdFALSE )
   221f8:	d0a02217 	ldw	r2,-32632(gp)
   221fc:	1000071e 	bne	r2,zero,2221c <prvAddNewTaskToReadyList+0x6c>
			{
				if( pxCurrentTCB->uxPriority <= pxNewTCB->uxPriority )
   22200:	d0a01c17 	ldw	r2,-32656(gp)
   22204:	10800b17 	ldw	r2,44(r2)
   22208:	e0ffff17 	ldw	r3,-4(fp)
   2220c:	18c00b17 	ldw	r3,44(r3)
   22210:	18800236 	bltu	r3,r2,2221c <prvAddNewTaskToReadyList+0x6c>
				{
					pxCurrentTCB = pxNewTCB;
   22214:	e0bfff17 	ldw	r2,-4(fp)
   22218:	d0a01c15 	stw	r2,-32656(gp)
			{
				mtCOVERAGE_TEST_MARKER();
			}
		}

		uxTaskNumber++;
   2221c:	d0a02617 	ldw	r2,-32616(gp)
   22220:	10800044 	addi	r2,r2,1
   22224:	d0a02615 	stw	r2,-32616(gp)
			pxNewTCB->uxTCBNumber = uxTaskNumber;
		}
		#endif /* configUSE_TRACE_FACILITY */
		traceTASK_CREATE( pxNewTCB );

		prvAddTaskToReadyList( pxNewTCB );
   22228:	e0bfff17 	ldw	r2,-4(fp)
   2222c:	10800b17 	ldw	r2,44(r2)
   22230:	d0e02117 	ldw	r3,-32636(gp)
   22234:	1880032e 	bgeu	r3,r2,22244 <prvAddNewTaskToReadyList+0x94>
   22238:	e0bfff17 	ldw	r2,-4(fp)
   2223c:	10800b17 	ldw	r2,44(r2)
   22240:	d0a02115 	stw	r2,-32636(gp)
   22244:	e0bfff17 	ldw	r2,-4(fp)
   22248:	10800b17 	ldw	r2,44(r2)
   2224c:	10c00524 	muli	r3,r2,20
   22250:	00800134 	movhi	r2,4
   22254:	10a34e04 	addi	r2,r2,-29384
   22258:	1887883a 	add	r3,r3,r2
   2225c:	e0bfff17 	ldw	r2,-4(fp)
   22260:	10800104 	addi	r2,r2,4
   22264:	100b883a 	mov	r5,r2
   22268:	1809883a 	mov	r4,r3
   2226c:	0020b6c0 	call	20b6c <vListInsertEnd>

		portSETUP_TCB( pxNewTCB );
	}
	taskEXIT_CRITICAL();
   22270:	00231700 	call	23170 <vTaskExitCritical>

	if( xSchedulerRunning != pdFALSE )
   22274:	d0a02217 	ldw	r2,-32632(gp)
   22278:	10000626 	beq	r2,zero,22294 <prvAddNewTaskToReadyList+0xe4>
	{
		/* If the created task is of a higher priority than the current task
		then it should run now. */
		if( pxCurrentTCB->uxPriority < pxNewTCB->uxPriority )
   2227c:	d0a01c17 	ldw	r2,-32656(gp)
   22280:	10c00b17 	ldw	r3,44(r2)
   22284:	e0bfff17 	ldw	r2,-4(fp)
   22288:	10800b17 	ldw	r2,44(r2)
   2228c:	1880012e 	bgeu	r3,r2,22294 <prvAddNewTaskToReadyList+0xe4>
		{
			taskYIELD_IF_USING_PREEMPTION();
   22290:	003b683a 	trap	0
	}
	else
	{
		mtCOVERAGE_TEST_MARKER();
	}
}
   22294:	0001883a 	nop
   22298:	e037883a 	mov	sp,fp
   2229c:	dfc00117 	ldw	ra,4(sp)
   222a0:	df000017 	ldw	fp,0(sp)
   222a4:	dec00204 	addi	sp,sp,8
   222a8:	f800283a 	ret

000222ac <vTaskDelayUntil>:
/*-----------------------------------------------------------*/

#if ( INCLUDE_vTaskDelayUntil == 1 )

	void vTaskDelayUntil( TickType_t * const pxPreviousWakeTime, const TickType_t xTimeIncrement )
	{
   222ac:	defff804 	addi	sp,sp,-32
   222b0:	dfc00715 	stw	ra,28(sp)
   222b4:	df000615 	stw	fp,24(sp)
   222b8:	df000604 	addi	fp,sp,24
   222bc:	e13ffe15 	stw	r4,-8(fp)
   222c0:	e17fff15 	stw	r5,-4(fp)
	TickType_t xTimeToWake;
	BaseType_t xAlreadyYielded, xShouldDelay = pdFALSE;
   222c4:	e03ffa15 	stw	zero,-24(fp)

		configASSERT( pxPreviousWakeTime );
		configASSERT( ( xTimeIncrement > 0U ) );
		configASSERT( uxSchedulerSuspended == 0 );

		vTaskSuspendAll();
   222c8:	00227200 	call	22720 <vTaskSuspendAll>
		{
			/* Minor optimisation.  The tick count cannot change in this
			block. */
			const TickType_t xConstTickCount = xTickCount;
   222cc:	d0a02017 	ldw	r2,-32640(gp)
   222d0:	e0bffb15 	stw	r2,-20(fp)

			/* Generate the tick time at which the task wants to wake. */
			xTimeToWake = *pxPreviousWakeTime + xTimeIncrement;
   222d4:	e0bffe17 	ldw	r2,-8(fp)
   222d8:	10c00017 	ldw	r3,0(r2)
   222dc:	e0bfff17 	ldw	r2,-4(fp)
   222e0:	1885883a 	add	r2,r3,r2
   222e4:	e0bffc15 	stw	r2,-16(fp)

			if( xConstTickCount < *pxPreviousWakeTime )
   222e8:	e0bffe17 	ldw	r2,-8(fp)
   222ec:	10800017 	ldw	r2,0(r2)
   222f0:	e0fffb17 	ldw	r3,-20(fp)
   222f4:	18800a2e 	bgeu	r3,r2,22320 <vTaskDelayUntil+0x74>
				/* The tick count has overflowed since this function was
				lasted called.  In this case the only time we should ever
				actually delay is if the wake time has also	overflowed,
				and the wake time is greater than the tick time.  When this
				is the case it is as if neither time had overflowed. */
				if( ( xTimeToWake < *pxPreviousWakeTime ) && ( xTimeToWake > xConstTickCount ) )
   222f8:	e0bffe17 	ldw	r2,-8(fp)
   222fc:	10800017 	ldw	r2,0(r2)
   22300:	e0fffc17 	ldw	r3,-16(fp)
   22304:	18800f2e 	bgeu	r3,r2,22344 <vTaskDelayUntil+0x98>
   22308:	e0bffc17 	ldw	r2,-16(fp)
   2230c:	e0fffb17 	ldw	r3,-20(fp)
   22310:	18800c2e 	bgeu	r3,r2,22344 <vTaskDelayUntil+0x98>
				{
					xShouldDelay = pdTRUE;
   22314:	00800044 	movi	r2,1
   22318:	e0bffa15 	stw	r2,-24(fp)
   2231c:	00000906 	br	22344 <vTaskDelayUntil+0x98>
			else
			{
				/* The tick time has not overflowed.  In this case we will
				delay if either the wake time has overflowed, and/or the
				tick time is less than the wake time. */
				if( ( xTimeToWake < *pxPreviousWakeTime ) || ( xTimeToWake > xConstTickCount ) )
   22320:	e0bffe17 	ldw	r2,-8(fp)
   22324:	10800017 	ldw	r2,0(r2)
   22328:	e0fffc17 	ldw	r3,-16(fp)
   2232c:	18800336 	bltu	r3,r2,2233c <vTaskDelayUntil+0x90>
   22330:	e0bffc17 	ldw	r2,-16(fp)
   22334:	e0fffb17 	ldw	r3,-20(fp)
   22338:	1880022e 	bgeu	r3,r2,22344 <vTaskDelayUntil+0x98>
				{
					xShouldDelay = pdTRUE;
   2233c:	00800044 	movi	r2,1
   22340:	e0bffa15 	stw	r2,-24(fp)
					mtCOVERAGE_TEST_MARKER();
				}
			}

			/* Update the wake time ready for the next call. */
			*pxPreviousWakeTime = xTimeToWake;
   22344:	e0bffe17 	ldw	r2,-8(fp)
   22348:	e0fffc17 	ldw	r3,-16(fp)
   2234c:	10c00015 	stw	r3,0(r2)

			if( xShouldDelay != pdFALSE )
   22350:	e0bffa17 	ldw	r2,-24(fp)
   22354:	10000626 	beq	r2,zero,22370 <vTaskDelayUntil+0xc4>
			{
				traceTASK_DELAY_UNTIL( xTimeToWake );

				/* prvAddCurrentTaskToDelayedList() needs the block time, not
				the time to wake, so subtract the current tick count. */
				prvAddCurrentTaskToDelayedList( xTimeToWake - xConstTickCount, pdFALSE );
   22358:	e0fffc17 	ldw	r3,-16(fp)
   2235c:	e0bffb17 	ldw	r2,-20(fp)
   22360:	1885c83a 	sub	r2,r3,r2
   22364:	000b883a 	mov	r5,zero
   22368:	1009883a 	mov	r4,r2
   2236c:	00238d80 	call	238d8 <prvAddCurrentTaskToDelayedList>
			else
			{
				mtCOVERAGE_TEST_MARKER();
			}
		}
		xAlreadyYielded = xTaskResumeAll();
   22370:	002274c0 	call	2274c <xTaskResumeAll>
   22374:	e0bffd15 	stw	r2,-12(fp)

		/* Force a reschedule if xTaskResumeAll has not already done so, we may
		have put ourselves to sleep. */
		if( xAlreadyYielded == pdFALSE )
   22378:	e0bffd17 	ldw	r2,-12(fp)
   2237c:	1000011e 	bne	r2,zero,22384 <vTaskDelayUntil+0xd8>
		{
			portYIELD_WITHIN_API();
   22380:	003b683a 	trap	0
		}
		else
		{
			mtCOVERAGE_TEST_MARKER();
		}
	}
   22384:	0001883a 	nop
   22388:	e037883a 	mov	sp,fp
   2238c:	dfc00117 	ldw	ra,4(sp)
   22390:	df000017 	ldw	fp,0(sp)
   22394:	dec00204 	addi	sp,sp,8
   22398:	f800283a 	ret

0002239c <vTaskDelay>:
/*-----------------------------------------------------------*/

#if ( INCLUDE_vTaskDelay == 1 )

	void vTaskDelay( const TickType_t xTicksToDelay )
	{
   2239c:	defffc04 	addi	sp,sp,-16
   223a0:	dfc00315 	stw	ra,12(sp)
   223a4:	df000215 	stw	fp,8(sp)
   223a8:	df000204 	addi	fp,sp,8
   223ac:	e13fff15 	stw	r4,-4(fp)
	BaseType_t xAlreadyYielded = pdFALSE;
   223b0:	e03ffe15 	stw	zero,-8(fp)

		/* A delay time of zero just forces a reschedule. */
		if( xTicksToDelay > ( TickType_t ) 0U )
   223b4:	e0bfff17 	ldw	r2,-4(fp)
   223b8:	10000626 	beq	r2,zero,223d4 <vTaskDelay+0x38>
		{
			configASSERT( uxSchedulerSuspended == 0 );
			vTaskSuspendAll();
   223bc:	00227200 	call	22720 <vTaskSuspendAll>
				list or removed from the blocked list until the scheduler
				is resumed.

				This task cannot be in an event list as it is the currently
				executing task. */
				prvAddCurrentTaskToDelayedList( xTicksToDelay, pdFALSE );
   223c0:	000b883a 	mov	r5,zero
   223c4:	e13fff17 	ldw	r4,-4(fp)
   223c8:	00238d80 	call	238d8 <prvAddCurrentTaskToDelayedList>
			}
			xAlreadyYielded = xTaskResumeAll();
   223cc:	002274c0 	call	2274c <xTaskResumeAll>
   223d0:	e0bffe15 	stw	r2,-8(fp)
			mtCOVERAGE_TEST_MARKER();
		}

		/* Force a reschedule if xTaskResumeAll has not already done so, we may
		have put ourselves to sleep. */
		if( xAlreadyYielded == pdFALSE )
   223d4:	e0bffe17 	ldw	r2,-8(fp)
   223d8:	1000011e 	bne	r2,zero,223e0 <vTaskDelay+0x44>
		{
			portYIELD_WITHIN_API();
   223dc:	003b683a 	trap	0
		}
		else
		{
			mtCOVERAGE_TEST_MARKER();
		}
	}
   223e0:	0001883a 	nop
   223e4:	e037883a 	mov	sp,fp
   223e8:	dfc00117 	ldw	ra,4(sp)
   223ec:	df000017 	ldw	fp,0(sp)
   223f0:	dec00204 	addi	sp,sp,8
   223f4:	f800283a 	ret

000223f8 <vTaskSuspend>:
/*-----------------------------------------------------------*/

#if ( INCLUDE_vTaskSuspend == 1 )

	void vTaskSuspend( TaskHandle_t xTaskToSuspend )
	{
   223f8:	defffc04 	addi	sp,sp,-16
   223fc:	dfc00315 	stw	ra,12(sp)
   22400:	df000215 	stw	fp,8(sp)
   22404:	df000204 	addi	fp,sp,8
   22408:	e13fff15 	stw	r4,-4(fp)
	TCB_t *pxTCB;

		taskENTER_CRITICAL();
   2240c:	002311c0 	call	2311c <vTaskEnterCritical>
		{
			/* If null is passed in here then it is the running task that is
			being suspended. */
			pxTCB = prvGetTCBFromHandle( xTaskToSuspend );
   22410:	e0bfff17 	ldw	r2,-4(fp)
   22414:	1000021e 	bne	r2,zero,22420 <vTaskSuspend+0x28>
   22418:	d0a01c17 	ldw	r2,-32656(gp)
   2241c:	00000106 	br	22424 <vTaskSuspend+0x2c>
   22420:	e0bfff17 	ldw	r2,-4(fp)
   22424:	e0bffe15 	stw	r2,-8(fp)

			traceTASK_SUSPEND( pxTCB );

			/* Remove task from the ready/delayed list and place in the
			suspended list. */
			if( uxListRemove( &( pxTCB->xStateListItem ) ) == ( UBaseType_t ) 0 )
   22428:	e0bffe17 	ldw	r2,-8(fp)
   2242c:	10800104 	addi	r2,r2,4
   22430:	1009883a 	mov	r4,r2
   22434:	0020cd00 	call	20cd0 <uxListRemove>
			{
				mtCOVERAGE_TEST_MARKER();
			}

			/* Is the task waiting on an event also? */
			if( listLIST_ITEM_CONTAINER( &( pxTCB->xEventListItem ) ) != NULL )
   22438:	e0bffe17 	ldw	r2,-8(fp)
   2243c:	10800a17 	ldw	r2,40(r2)
   22440:	10000426 	beq	r2,zero,22454 <vTaskSuspend+0x5c>
			{
				( void ) uxListRemove( &( pxTCB->xEventListItem ) );
   22444:	e0bffe17 	ldw	r2,-8(fp)
   22448:	10800604 	addi	r2,r2,24
   2244c:	1009883a 	mov	r4,r2
   22450:	0020cd00 	call	20cd0 <uxListRemove>
			else
			{
				mtCOVERAGE_TEST_MARKER();
			}

			vListInsertEnd( &xSuspendedTaskList, &( pxTCB->xStateListItem ) );
   22454:	e0bffe17 	ldw	r2,-8(fp)
   22458:	10800104 	addi	r2,r2,4
   2245c:	100b883a 	mov	r5,r2
   22460:	01000134 	movhi	r4,4
   22464:	21237604 	addi	r4,r4,-29224
   22468:	0020b6c0 	call	20b6c <vListInsertEnd>
		}
		taskEXIT_CRITICAL();
   2246c:	00231700 	call	23170 <vTaskExitCritical>

		if( xSchedulerRunning != pdFALSE )
   22470:	d0a02217 	ldw	r2,-32632(gp)
   22474:	10000326 	beq	r2,zero,22484 <vTaskSuspend+0x8c>
		{
			/* Reset the next expected unblock time in case it referred to the
			task that is now in the Suspended state. */
			taskENTER_CRITICAL();
   22478:	002311c0 	call	2311c <vTaskEnterCritical>
			{
				prvResetNextTaskUnblockTime();
   2247c:	00230b40 	call	230b4 <prvResetNextTaskUnblockTime>
			}
			taskEXIT_CRITICAL();
   22480:	00231700 	call	23170 <vTaskExitCritical>
		else
		{
			mtCOVERAGE_TEST_MARKER();
		}

		if( pxTCB == pxCurrentTCB )
   22484:	d0a01c17 	ldw	r2,-32656(gp)
   22488:	e0fffe17 	ldw	r3,-8(fp)
   2248c:	18800c1e 	bne	r3,r2,224c0 <vTaskSuspend+0xc8>
		{
			if( xSchedulerRunning != pdFALSE )
   22490:	d0a02217 	ldw	r2,-32632(gp)
   22494:	10000226 	beq	r2,zero,224a0 <vTaskSuspend+0xa8>
			{
				/* The current task has just been suspended. */
				configASSERT( uxSchedulerSuspended == 0 );
				portYIELD_WITHIN_API();
   22498:	003b683a 	trap	0
		}
		else
		{
			mtCOVERAGE_TEST_MARKER();
		}
	}
   2249c:	00000806 	br	224c0 <vTaskSuspend+0xc8>
			else
			{
				/* The scheduler is not running, but the task that was pointed
				to by pxCurrentTCB has just been suspended and pxCurrentTCB
				must be adjusted to point to a different task. */
				if( listCURRENT_LIST_LENGTH( &xSuspendedTaskList ) == uxCurrentNumberOfTasks )
   224a0:	00800134 	movhi	r2,4
   224a4:	10a37604 	addi	r2,r2,-29224
   224a8:	10c00017 	ldw	r3,0(r2)
   224ac:	d0a01f17 	ldw	r2,-32644(gp)
   224b0:	1880021e 	bne	r3,r2,224bc <vTaskSuspend+0xc4>
				{
					/* No other tasks are ready, so set pxCurrentTCB back to
					NULL so when the next task is created pxCurrentTCB will
					be set to point to it no matter what its relative priority
					is. */
					pxCurrentTCB = NULL;
   224b4:	d0201c15 	stw	zero,-32656(gp)
		}
		else
		{
			mtCOVERAGE_TEST_MARKER();
		}
	}
   224b8:	00000106 	br	224c0 <vTaskSuspend+0xc8>
					is. */
					pxCurrentTCB = NULL;
				}
				else
				{
					vTaskSwitchContext();
   224bc:	0022b1c0 	call	22b1c <vTaskSwitchContext>
		}
		else
		{
			mtCOVERAGE_TEST_MARKER();
		}
	}
   224c0:	0001883a 	nop
   224c4:	e037883a 	mov	sp,fp
   224c8:	dfc00117 	ldw	ra,4(sp)
   224cc:	df000017 	ldw	fp,0(sp)
   224d0:	dec00204 	addi	sp,sp,8
   224d4:	f800283a 	ret

000224d8 <prvTaskIsTaskSuspended>:
/*-----------------------------------------------------------*/

#if ( INCLUDE_vTaskSuspend == 1 )

	static BaseType_t prvTaskIsTaskSuspended( const TaskHandle_t xTask )
	{
   224d8:	defffc04 	addi	sp,sp,-16
   224dc:	df000315 	stw	fp,12(sp)
   224e0:	df000304 	addi	fp,sp,12
   224e4:	e13fff15 	stw	r4,-4(fp)
	BaseType_t xReturn = pdFALSE;
   224e8:	e03ffd15 	stw	zero,-12(fp)
	const TCB_t * const pxTCB = ( TCB_t * ) xTask;
   224ec:	e0bfff17 	ldw	r2,-4(fp)
   224f0:	e0bffe15 	stw	r2,-8(fp)

		/* It does not make sense to check if the calling task is suspended. */
		configASSERT( xTask );

		/* Is the task being resumed actually in the suspended list? */
		if( listIS_CONTAINED_WITHIN( &xSuspendedTaskList, &( pxTCB->xStateListItem ) ) != pdFALSE )
   224f4:	e0bffe17 	ldw	r2,-8(fp)
   224f8:	10c00517 	ldw	r3,20(r2)
   224fc:	00800134 	movhi	r2,4
   22500:	10a37604 	addi	r2,r2,-29224
   22504:	1880021e 	bne	r3,r2,22510 <prvTaskIsTaskSuspended+0x38>
   22508:	00800044 	movi	r2,1
   2250c:	00000106 	br	22514 <prvTaskIsTaskSuspended+0x3c>
   22510:	0005883a 	mov	r2,zero
   22514:	10803fcc 	andi	r2,r2,255
   22518:	10000f26 	beq	r2,zero,22558 <prvTaskIsTaskSuspended+0x80>
		{
			/* Has the task already been resumed from within an ISR? */
			if( listIS_CONTAINED_WITHIN( &xPendingReadyList, &( pxTCB->xEventListItem ) ) == pdFALSE )
   2251c:	e0bffe17 	ldw	r2,-8(fp)
   22520:	10c00a17 	ldw	r3,40(r2)
   22524:	00800134 	movhi	r2,4
   22528:	10a37104 	addi	r2,r2,-29244
   2252c:	18800a26 	beq	r3,r2,22558 <prvTaskIsTaskSuspended+0x80>
			{
				/* Is it in the suspended list because it is in the	Suspended
				state, or because is is blocked with no timeout? */
				if( listIS_CONTAINED_WITHIN( NULL, &( pxTCB->xEventListItem ) ) != pdFALSE )
   22530:	e0bffe17 	ldw	r2,-8(fp)
   22534:	10800a17 	ldw	r2,40(r2)
   22538:	1000021e 	bne	r2,zero,22544 <prvTaskIsTaskSuspended+0x6c>
   2253c:	00800044 	movi	r2,1
   22540:	00000106 	br	22548 <prvTaskIsTaskSuspended+0x70>
   22544:	0005883a 	mov	r2,zero
   22548:	10803fcc 	andi	r2,r2,255
   2254c:	10000226 	beq	r2,zero,22558 <prvTaskIsTaskSuspended+0x80>
				{
					xReturn = pdTRUE;
   22550:	00800044 	movi	r2,1
   22554:	e0bffd15 	stw	r2,-12(fp)
		else
		{
			mtCOVERAGE_TEST_MARKER();
		}

		return xReturn;
   22558:	e0bffd17 	ldw	r2,-12(fp)
	} /*lint !e818 xTask cannot be a pointer to const because it is a typedef. */
   2255c:	e037883a 	mov	sp,fp
   22560:	df000017 	ldw	fp,0(sp)
   22564:	dec00104 	addi	sp,sp,4
   22568:	f800283a 	ret

0002256c <vTaskResume>:
/*-----------------------------------------------------------*/

#if ( INCLUDE_vTaskSuspend == 1 )

	void vTaskResume( TaskHandle_t xTaskToResume )
	{
   2256c:	defffc04 	addi	sp,sp,-16
   22570:	dfc00315 	stw	ra,12(sp)
   22574:	df000215 	stw	fp,8(sp)
   22578:	df000204 	addi	fp,sp,8
   2257c:	e13fff15 	stw	r4,-4(fp)
	TCB_t * const pxTCB = ( TCB_t * ) xTaskToResume;
   22580:	e0bfff17 	ldw	r2,-4(fp)
   22584:	e0bffe15 	stw	r2,-8(fp)
		/* It does not make sense to resume the calling task. */
		configASSERT( xTaskToResume );

		/* The parameter cannot be NULL as it is impossible to resume the
		currently executing task. */
		if( ( pxTCB != NULL ) && ( pxTCB != pxCurrentTCB ) )
   22588:	e0bffe17 	ldw	r2,-8(fp)
   2258c:	10002426 	beq	r2,zero,22620 <vTaskResume+0xb4>
   22590:	d0a01c17 	ldw	r2,-32656(gp)
   22594:	e0fffe17 	ldw	r3,-8(fp)
   22598:	18802126 	beq	r3,r2,22620 <vTaskResume+0xb4>
		{
			taskENTER_CRITICAL();
   2259c:	002311c0 	call	2311c <vTaskEnterCritical>
			{
				if( prvTaskIsTaskSuspended( pxTCB ) != pdFALSE )
   225a0:	e13ffe17 	ldw	r4,-8(fp)
   225a4:	00224d80 	call	224d8 <prvTaskIsTaskSuspended>
   225a8:	10001c26 	beq	r2,zero,2261c <vTaskResume+0xb0>
				{
					traceTASK_RESUME( pxTCB );

					/* As we are in a critical section we can access the ready
					lists even if the scheduler is suspended. */
					( void ) uxListRemove(  &( pxTCB->xStateListItem ) );
   225ac:	e0bffe17 	ldw	r2,-8(fp)
   225b0:	10800104 	addi	r2,r2,4
   225b4:	1009883a 	mov	r4,r2
   225b8:	0020cd00 	call	20cd0 <uxListRemove>
					prvAddTaskToReadyList( pxTCB );
   225bc:	e0bffe17 	ldw	r2,-8(fp)
   225c0:	10800b17 	ldw	r2,44(r2)
   225c4:	d0e02117 	ldw	r3,-32636(gp)
   225c8:	1880032e 	bgeu	r3,r2,225d8 <vTaskResume+0x6c>
   225cc:	e0bffe17 	ldw	r2,-8(fp)
   225d0:	10800b17 	ldw	r2,44(r2)
   225d4:	d0a02115 	stw	r2,-32636(gp)
   225d8:	e0bffe17 	ldw	r2,-8(fp)
   225dc:	10800b17 	ldw	r2,44(r2)
   225e0:	10c00524 	muli	r3,r2,20
   225e4:	00800134 	movhi	r2,4
   225e8:	10a34e04 	addi	r2,r2,-29384
   225ec:	1887883a 	add	r3,r3,r2
   225f0:	e0bffe17 	ldw	r2,-8(fp)
   225f4:	10800104 	addi	r2,r2,4
   225f8:	100b883a 	mov	r5,r2
   225fc:	1809883a 	mov	r4,r3
   22600:	0020b6c0 	call	20b6c <vListInsertEnd>

					/* We may have just resumed a higher priority task. */
					if( pxTCB->uxPriority >= pxCurrentTCB->uxPriority )
   22604:	e0bffe17 	ldw	r2,-8(fp)
   22608:	10c00b17 	ldw	r3,44(r2)
   2260c:	d0a01c17 	ldw	r2,-32656(gp)
   22610:	10800b17 	ldw	r2,44(r2)
   22614:	18800136 	bltu	r3,r2,2261c <vTaskResume+0xb0>
					{
						/* This yield may not cause the task just resumed to run,
						but will leave the lists in the correct state for the
						next yield. */
						taskYIELD_IF_USING_PREEMPTION();
   22618:	003b683a 	trap	0
				else
				{
					mtCOVERAGE_TEST_MARKER();
				}
			}
			taskEXIT_CRITICAL();
   2261c:	00231700 	call	23170 <vTaskExitCritical>
		}
		else
		{
			mtCOVERAGE_TEST_MARKER();
		}
	}
   22620:	0001883a 	nop
   22624:	e037883a 	mov	sp,fp
   22628:	dfc00117 	ldw	ra,4(sp)
   2262c:	df000017 	ldw	fp,0(sp)
   22630:	dec00204 	addi	sp,sp,8
   22634:	f800283a 	ret

00022638 <vTaskStartScheduler>:

#endif /* ( ( INCLUDE_xTaskResumeFromISR == 1 ) && ( INCLUDE_vTaskSuspend == 1 ) ) */
/*-----------------------------------------------------------*/

void vTaskStartScheduler( void )
{
   22638:	defffa04 	addi	sp,sp,-24
   2263c:	dfc00515 	stw	ra,20(sp)
   22640:	df000415 	stw	fp,16(sp)
   22644:	df000404 	addi	fp,sp,16
		}
	}
	#else
	{
		/* The Idle task is being created using dynamically allocated RAM. */
		xReturn = xTaskCreate(	prvIdleTask,
   22648:	d0a02804 	addi	r2,gp,-32608
   2264c:	d8800115 	stw	r2,4(sp)
   22650:	d8000015 	stw	zero,0(sp)
   22654:	000f883a 	mov	r7,zero
   22658:	01804004 	movi	r6,256
   2265c:	014000f4 	movhi	r5,3
   22660:	294a6004 	addi	r5,r5,10624
   22664:	010000b4 	movhi	r4,2
   22668:	210bed04 	addi	r4,r4,12212
   2266c:	0021f300 	call	21f30 <xTaskCreate>
   22670:	e0bffe15 	stw	r2,-8(fp)
			mtCOVERAGE_TEST_MARKER();
		}
	}
	#endif /* configUSE_TIMERS */

	if( xReturn == pdPASS )
   22674:	e0bffe17 	ldw	r2,-8(fp)
   22678:	10800058 	cmpnei	r2,r2,1
   2267c:	1000101e 	bne	r2,zero,226c0 <vTaskStartScheduler+0x88>
static ALT_INLINE alt_irq_context ALT_ALWAYS_INLINE 
       alt_irq_disable_all (void)
{
  alt_irq_context context;

  NIOS2_READ_STATUS (context);
   22680:	0005303a 	rdctl	r2,status
   22684:	e0bfff15 	stw	r2,-4(fp)

  NIOS2_WRITE_STATUS (context & ~NIOS2_STATUS_PIE_MSK);
   22688:	e0ffff17 	ldw	r3,-4(fp)
   2268c:	00bfff84 	movi	r2,-2
   22690:	1884703a 	and	r2,r3,r2
   22694:	1001703a 	wrctl	status,r2
			structure specific to the task that will run first. */
			_impure_ptr = &( pxCurrentTCB->xNewLib_reent );
		}
		#endif /* configUSE_NEWLIB_REENTRANT */

		xNextTaskUnblockTime = portMAX_DELAY;
   22698:	00bfffc4 	movi	r2,-1
   2269c:	d0a02715 	stw	r2,-32612(gp)
		xSchedulerRunning = pdTRUE;
   226a0:	00800044 	movi	r2,1
   226a4:	d0a02215 	stw	r2,-32632(gp)
		xTickCount = ( TickType_t ) 0U;
   226a8:	d0202015 	stw	zero,-32640(gp)
		the run time counter time base. */
		portCONFIGURE_TIMER_FOR_RUN_TIME_STATS();

		/* Setting up the timer tick is hardware specific and thus in the
		portable interface. */
		IOWR_ALTERA_AVALON_PIO_DATA(ONBOARD_LED_BASE, 0xFF);
   226ac:	00c03fc4 	movi	r3,255
   226b0:	00800074 	movhi	r2,1
   226b4:	10801404 	addi	r2,r2,80
   226b8:	10c00035 	stwio	r3,0(r2)
		if( xPortStartScheduler() != pdFALSE )
   226bc:	0020e740 	call	20e74 <xPortStartScheduler>
	}

	/* Prevent compiler warnings if INCLUDE_xTaskGetIdleTaskHandle is set to 0,
	meaning xIdleTaskHandle is not used anywhere else. */
	( void ) xIdleTaskHandle;
}
   226c0:	0001883a 	nop
   226c4:	e037883a 	mov	sp,fp
   226c8:	dfc00117 	ldw	ra,4(sp)
   226cc:	df000017 	ldw	fp,0(sp)
   226d0:	dec00204 	addi	sp,sp,8
   226d4:	f800283a 	ret

000226d8 <vTaskEndScheduler>:
/*-----------------------------------------------------------*/

void vTaskEndScheduler( void )
{
   226d8:	defffd04 	addi	sp,sp,-12
   226dc:	dfc00215 	stw	ra,8(sp)
   226e0:	df000115 	stw	fp,4(sp)
   226e4:	df000104 	addi	fp,sp,4
static ALT_INLINE alt_irq_context ALT_ALWAYS_INLINE 
       alt_irq_disable_all (void)
{
  alt_irq_context context;

  NIOS2_READ_STATUS (context);
   226e8:	0005303a 	rdctl	r2,status
   226ec:	e0bfff15 	stw	r2,-4(fp)

  NIOS2_WRITE_STATUS (context & ~NIOS2_STATUS_PIE_MSK);
   226f0:	e0ffff17 	ldw	r3,-4(fp)
   226f4:	00bfff84 	movi	r2,-2
   226f8:	1884703a 	and	r2,r3,r2
   226fc:	1001703a 	wrctl	status,r2
	/* Stop the scheduler interrupts and call the portable scheduler end
	routine so the original ISRs can be restored if necessary.  The port
	layer must ensure interrupts enable	bit is left in the correct state. */
	portDISABLE_INTERRUPTS();
	xSchedulerRunning = pdFALSE;
   22700:	d0202215 	stw	zero,-32632(gp)
	vPortEndScheduler();
   22704:	0020eac0 	call	20eac <vPortEndScheduler>
}
   22708:	0001883a 	nop
   2270c:	e037883a 	mov	sp,fp
   22710:	dfc00117 	ldw	ra,4(sp)
   22714:	df000017 	ldw	fp,0(sp)
   22718:	dec00204 	addi	sp,sp,8
   2271c:	f800283a 	ret

00022720 <vTaskSuspendAll>:
/*----------------------------------------------------------*/

void vTaskSuspendAll( void )
{
   22720:	deffff04 	addi	sp,sp,-4
   22724:	df000015 	stw	fp,0(sp)
   22728:	d839883a 	mov	fp,sp
	/* A critical section is not required as the variable is of type
	BaseType_t.  Please read Richard Barry's reply in the following link to a
	post in the FreeRTOS support forum before reporting this as a bug! -
	http://goo.gl/wu4acr */
	++uxSchedulerSuspended;
   2272c:	d0a02917 	ldw	r2,-32604(gp)
   22730:	10800044 	addi	r2,r2,1
   22734:	d0a02915 	stw	r2,-32604(gp)
}
   22738:	0001883a 	nop
   2273c:	e037883a 	mov	sp,fp
   22740:	df000017 	ldw	fp,0(sp)
   22744:	dec00104 	addi	sp,sp,4
   22748:	f800283a 	ret

0002274c <xTaskResumeAll>:

#endif /* configUSE_TICKLESS_IDLE */
/*----------------------------------------------------------*/

BaseType_t xTaskResumeAll( void )
{
   2274c:	defffb04 	addi	sp,sp,-20
   22750:	dfc00415 	stw	ra,16(sp)
   22754:	df000315 	stw	fp,12(sp)
   22758:	df000304 	addi	fp,sp,12
TCB_t *pxTCB = NULL;
   2275c:	e03ffd15 	stw	zero,-12(fp)
BaseType_t xAlreadyYielded = pdFALSE;
   22760:	e03ffe15 	stw	zero,-8(fp)
	/* It is possible that an ISR caused a task to be removed from an event
	list while the scheduler was suspended.  If this was the case then the
	removed task will have been added to the xPendingReadyList.  Once the
	scheduler has been resumed it is safe to move all the pending ready
	tasks from this list into their appropriate ready list. */
	taskENTER_CRITICAL();
   22764:	002311c0 	call	2311c <vTaskEnterCritical>
	{
		--uxSchedulerSuspended;
   22768:	d0a02917 	ldw	r2,-32604(gp)
   2276c:	10bfffc4 	addi	r2,r2,-1
   22770:	d0a02915 	stw	r2,-32604(gp)

		if( uxSchedulerSuspended == ( UBaseType_t ) pdFALSE )
   22774:	d0a02917 	ldw	r2,-32604(gp)
   22778:	1000431e 	bne	r2,zero,22888 <xTaskResumeAll+0x13c>
		{
			if( uxCurrentNumberOfTasks > ( UBaseType_t ) 0U )
   2277c:	d0a01f17 	ldw	r2,-32644(gp)
   22780:	10004126 	beq	r2,zero,22888 <xTaskResumeAll+0x13c>
			{
				/* Move any readied tasks from the pending list into the
				appropriate ready list. */
				while( listLIST_IS_EMPTY( &xPendingReadyList ) == pdFALSE )
   22784:	00002606 	br	22820 <xTaskResumeAll+0xd4>
				{
					pxTCB = ( TCB_t * ) listGET_OWNER_OF_HEAD_ENTRY( ( &xPendingReadyList ) );
   22788:	00800134 	movhi	r2,4
   2278c:	10a37104 	addi	r2,r2,-29244
   22790:	10800317 	ldw	r2,12(r2)
   22794:	10800317 	ldw	r2,12(r2)
   22798:	e0bffd15 	stw	r2,-12(fp)
					( void ) uxListRemove( &( pxTCB->xEventListItem ) );
   2279c:	e0bffd17 	ldw	r2,-12(fp)
   227a0:	10800604 	addi	r2,r2,24
   227a4:	1009883a 	mov	r4,r2
   227a8:	0020cd00 	call	20cd0 <uxListRemove>
					( void ) uxListRemove( &( pxTCB->xStateListItem ) );
   227ac:	e0bffd17 	ldw	r2,-12(fp)
   227b0:	10800104 	addi	r2,r2,4
   227b4:	1009883a 	mov	r4,r2
   227b8:	0020cd00 	call	20cd0 <uxListRemove>
					prvAddTaskToReadyList( pxTCB );
   227bc:	e0bffd17 	ldw	r2,-12(fp)
   227c0:	10800b17 	ldw	r2,44(r2)
   227c4:	d0e02117 	ldw	r3,-32636(gp)
   227c8:	1880032e 	bgeu	r3,r2,227d8 <xTaskResumeAll+0x8c>
   227cc:	e0bffd17 	ldw	r2,-12(fp)
   227d0:	10800b17 	ldw	r2,44(r2)
   227d4:	d0a02115 	stw	r2,-32636(gp)
   227d8:	e0bffd17 	ldw	r2,-12(fp)
   227dc:	10800b17 	ldw	r2,44(r2)
   227e0:	10c00524 	muli	r3,r2,20
   227e4:	00800134 	movhi	r2,4
   227e8:	10a34e04 	addi	r2,r2,-29384
   227ec:	1887883a 	add	r3,r3,r2
   227f0:	e0bffd17 	ldw	r2,-12(fp)
   227f4:	10800104 	addi	r2,r2,4
   227f8:	100b883a 	mov	r5,r2
   227fc:	1809883a 	mov	r4,r3
   22800:	0020b6c0 	call	20b6c <vListInsertEnd>

					/* If the moved task has a priority higher than the current
					task then a yield must be performed. */
					if( pxTCB->uxPriority >= pxCurrentTCB->uxPriority )
   22804:	e0bffd17 	ldw	r2,-12(fp)
   22808:	10c00b17 	ldw	r3,44(r2)
   2280c:	d0a01c17 	ldw	r2,-32656(gp)
   22810:	10800b17 	ldw	r2,44(r2)
   22814:	18800236 	bltu	r3,r2,22820 <xTaskResumeAll+0xd4>
					{
						xYieldPending = pdTRUE;
   22818:	00800044 	movi	r2,1
   2281c:	d0a02415 	stw	r2,-32624(gp)
		{
			if( uxCurrentNumberOfTasks > ( UBaseType_t ) 0U )
			{
				/* Move any readied tasks from the pending list into the
				appropriate ready list. */
				while( listLIST_IS_EMPTY( &xPendingReadyList ) == pdFALSE )
   22820:	00800134 	movhi	r2,4
   22824:	10a37104 	addi	r2,r2,-29244
   22828:	10800017 	ldw	r2,0(r2)
   2282c:	103fd61e 	bne	r2,zero,22788 <__reset+0xfff82788>
					{
						mtCOVERAGE_TEST_MARKER();
					}
				}

				if( pxTCB != NULL )
   22830:	e0bffd17 	ldw	r2,-12(fp)
   22834:	10000126 	beq	r2,zero,2283c <xTaskResumeAll+0xf0>
					which may have prevented the next unblock time from being
					re-calculated, in which case re-calculate it now.  Mainly
					important for low power tickless implementations, where
					this can prevent an unnecessary exit from low power
					state. */
					prvResetNextTaskUnblockTime();
   22838:	00230b40 	call	230b4 <prvResetNextTaskUnblockTime>
				/* If any ticks occurred while the scheduler was suspended then
				they should be processed now.  This ensures the tick count does
				not	slip, and that any delayed tasks are resumed at the correct
				time. */
				{
					UBaseType_t uxPendedCounts = uxPendedTicks; /* Non-volatile copy. */
   2283c:	d0a02317 	ldw	r2,-32628(gp)
   22840:	e0bfff15 	stw	r2,-4(fp)

					if( uxPendedCounts > ( UBaseType_t ) 0U )
   22844:	e0bfff17 	ldw	r2,-4(fp)
   22848:	10000a26 	beq	r2,zero,22874 <xTaskResumeAll+0x128>
					{
						do
						{
							if( xTaskIncrementTick() != pdFALSE )
   2284c:	00229580 	call	22958 <xTaskIncrementTick>
   22850:	10000226 	beq	r2,zero,2285c <xTaskResumeAll+0x110>
							{
								xYieldPending = pdTRUE;
   22854:	00800044 	movi	r2,1
   22858:	d0a02415 	stw	r2,-32624(gp)
							}
							else
							{
								mtCOVERAGE_TEST_MARKER();
							}
							--uxPendedCounts;
   2285c:	e0bfff17 	ldw	r2,-4(fp)
   22860:	10bfffc4 	addi	r2,r2,-1
   22864:	e0bfff15 	stw	r2,-4(fp)
						} while( uxPendedCounts > ( UBaseType_t ) 0U );
   22868:	e0bfff17 	ldw	r2,-4(fp)
   2286c:	103ff71e 	bne	r2,zero,2284c <__reset+0xfff8284c>

						uxPendedTicks = 0;
   22870:	d0202315 	stw	zero,-32628(gp)
					{
						mtCOVERAGE_TEST_MARKER();
					}
				}

				if( xYieldPending != pdFALSE )
   22874:	d0a02417 	ldw	r2,-32624(gp)
   22878:	10000326 	beq	r2,zero,22888 <xTaskResumeAll+0x13c>
				{
					#if( configUSE_PREEMPTION != 0 )
					{
						xAlreadyYielded = pdTRUE;
   2287c:	00800044 	movi	r2,1
   22880:	e0bffe15 	stw	r2,-8(fp)
					}
					#endif
					taskYIELD_IF_USING_PREEMPTION();
   22884:	003b683a 	trap	0
		else
		{
			mtCOVERAGE_TEST_MARKER();
		}
	}
	taskEXIT_CRITICAL();
   22888:	00231700 	call	23170 <vTaskExitCritical>

	return xAlreadyYielded;
   2288c:	e0bffe17 	ldw	r2,-8(fp)
}
   22890:	e037883a 	mov	sp,fp
   22894:	dfc00117 	ldw	ra,4(sp)
   22898:	df000017 	ldw	fp,0(sp)
   2289c:	dec00204 	addi	sp,sp,8
   228a0:	f800283a 	ret

000228a4 <xTaskGetTickCount>:
/*-----------------------------------------------------------*/

TickType_t xTaskGetTickCount( void )
{
   228a4:	defffe04 	addi	sp,sp,-8
   228a8:	df000115 	stw	fp,4(sp)
   228ac:	df000104 	addi	fp,sp,4
TickType_t xTicks;

	/* Critical section required if running on a 16 bit processor. */
	portTICK_TYPE_ENTER_CRITICAL();
	{
		xTicks = xTickCount;
   228b0:	d0a02017 	ldw	r2,-32640(gp)
   228b4:	e0bfff15 	stw	r2,-4(fp)
	}
	portTICK_TYPE_EXIT_CRITICAL();

	return xTicks;
   228b8:	e0bfff17 	ldw	r2,-4(fp)
}
   228bc:	e037883a 	mov	sp,fp
   228c0:	df000017 	ldw	fp,0(sp)
   228c4:	dec00104 	addi	sp,sp,4
   228c8:	f800283a 	ret

000228cc <xTaskGetTickCountFromISR>:
/*-----------------------------------------------------------*/

TickType_t xTaskGetTickCountFromISR( void )
{
   228cc:	defffd04 	addi	sp,sp,-12
   228d0:	df000215 	stw	fp,8(sp)
   228d4:	df000204 	addi	fp,sp,8
	safe API to ensure interrupt entry is as fast and as simple as possible.
	More information (albeit Cortex-M specific) is provided on the following
	link: http://www.freertos.org/RTOS-Cortex-M3-M4.html */
	portASSERT_IF_INTERRUPT_PRIORITY_INVALID();

	uxSavedInterruptStatus = portTICK_TYPE_SET_INTERRUPT_MASK_FROM_ISR();
   228d8:	e03ffe15 	stw	zero,-8(fp)
	{
		xReturn = xTickCount;
   228dc:	d0a02017 	ldw	r2,-32640(gp)
   228e0:	e0bfff15 	stw	r2,-4(fp)
	}
	portTICK_TYPE_CLEAR_INTERRUPT_MASK_FROM_ISR( uxSavedInterruptStatus );

	return xReturn;
   228e4:	e0bfff17 	ldw	r2,-4(fp)
}
   228e8:	e037883a 	mov	sp,fp
   228ec:	df000017 	ldw	fp,0(sp)
   228f0:	dec00104 	addi	sp,sp,4
   228f4:	f800283a 	ret

000228f8 <uxTaskGetNumberOfTasks>:
/*-----------------------------------------------------------*/

UBaseType_t uxTaskGetNumberOfTasks( void )
{
   228f8:	deffff04 	addi	sp,sp,-4
   228fc:	df000015 	stw	fp,0(sp)
   22900:	d839883a 	mov	fp,sp
	/* A critical section is not required because the variables are of type
	BaseType_t. */
	return uxCurrentNumberOfTasks;
   22904:	d0a01f17 	ldw	r2,-32644(gp)
}
   22908:	e037883a 	mov	sp,fp
   2290c:	df000017 	ldw	fp,0(sp)
   22910:	dec00104 	addi	sp,sp,4
   22914:	f800283a 	ret

00022918 <pcTaskGetName>:
/*-----------------------------------------------------------*/

char *pcTaskGetName( TaskHandle_t xTaskToQuery ) /*lint !e971 Unqualified char types are allowed for strings and single characters only. */
{
   22918:	defffd04 	addi	sp,sp,-12
   2291c:	df000215 	stw	fp,8(sp)
   22920:	df000204 	addi	fp,sp,8
   22924:	e13fff15 	stw	r4,-4(fp)
TCB_t *pxTCB;

	/* If null is passed in here then the name of the calling task is being
	queried. */
	pxTCB = prvGetTCBFromHandle( xTaskToQuery );
   22928:	e0bfff17 	ldw	r2,-4(fp)
   2292c:	1000021e 	bne	r2,zero,22938 <pcTaskGetName+0x20>
   22930:	d0a01c17 	ldw	r2,-32656(gp)
   22934:	00000106 	br	2293c <pcTaskGetName+0x24>
   22938:	e0bfff17 	ldw	r2,-4(fp)
   2293c:	e0bffe15 	stw	r2,-8(fp)
	configASSERT( pxTCB );
	return &( pxTCB->pcTaskName[ 0 ] );
   22940:	e0bffe17 	ldw	r2,-8(fp)
   22944:	10800d04 	addi	r2,r2,52
}
   22948:	e037883a 	mov	sp,fp
   2294c:	df000017 	ldw	fp,0(sp)
   22950:	dec00104 	addi	sp,sp,4
   22954:	f800283a 	ret

00022958 <xTaskIncrementTick>:

#endif /* INCLUDE_xTaskAbortDelay */
/*----------------------------------------------------------*/

BaseType_t xTaskIncrementTick( void )
{
   22958:	defff904 	addi	sp,sp,-28
   2295c:	dfc00615 	stw	ra,24(sp)
   22960:	df000515 	stw	fp,20(sp)
   22964:	df000504 	addi	fp,sp,20
TCB_t * pxTCB;
TickType_t xItemValue;
BaseType_t xSwitchRequired = pdFALSE;
   22968:	e03ffb15 	stw	zero,-20(fp)

	/* Called by the portable layer each time a tick interrupt occurs.
	Increments the tick then checks to see if the new tick value will cause any
	tasks to be unblocked. */
	traceTASK_INCREMENT_TICK( xTickCount );
	if( uxSchedulerSuspended == ( UBaseType_t ) pdFALSE )
   2296c:	d0a02917 	ldw	r2,-32604(gp)
   22970:	10005d1e 	bne	r2,zero,22ae8 <xTaskIncrementTick+0x190>
	{
		/* Minor optimisation.  The tick count cannot change in this
		block. */
		const TickType_t xConstTickCount = xTickCount + 1;
   22974:	d0a02017 	ldw	r2,-32640(gp)
   22978:	10800044 	addi	r2,r2,1
   2297c:	e0bffc15 	stw	r2,-16(fp)

		/* Increment the RTOS tick, switching the delayed and overflowed
		delayed lists if it wraps to 0. */
		xTickCount = xConstTickCount;
   22980:	e0bffc17 	ldw	r2,-16(fp)
   22984:	d0a02015 	stw	r2,-32640(gp)

		if( xConstTickCount == ( TickType_t ) 0U )
   22988:	e0bffc17 	ldw	r2,-16(fp)
   2298c:	10000a1e 	bne	r2,zero,229b8 <xTaskIncrementTick+0x60>
		{
			taskSWITCH_DELAYED_LISTS();
   22990:	d0a01d17 	ldw	r2,-32652(gp)
   22994:	e0bffd15 	stw	r2,-12(fp)
   22998:	d0a01e17 	ldw	r2,-32648(gp)
   2299c:	d0a01d15 	stw	r2,-32652(gp)
   229a0:	e0bffd17 	ldw	r2,-12(fp)
   229a4:	d0a01e15 	stw	r2,-32648(gp)
   229a8:	d0a02517 	ldw	r2,-32620(gp)
   229ac:	10800044 	addi	r2,r2,1
   229b0:	d0a02515 	stw	r2,-32620(gp)
   229b4:	00230b40 	call	230b4 <prvResetNextTaskUnblockTime>

		/* See if this tick has made a timeout expire.  Tasks are stored in
		the	queue in the order of their wake time - meaning once one task
		has been found whose block time has not expired there is no need to
		look any further down the list. */
		if( xConstTickCount >= xNextTaskUnblockTime )
   229b8:	d0a02717 	ldw	r2,-32612(gp)
   229bc:	e0fffc17 	ldw	r3,-16(fp)
   229c0:	18803d36 	bltu	r3,r2,22ab8 <xTaskIncrementTick+0x160>
		{
			for( ;; )
			{
				if( listLIST_IS_EMPTY( pxDelayedTaskList ) != pdFALSE )
   229c4:	d0a01d17 	ldw	r2,-32652(gp)
   229c8:	10800017 	ldw	r2,0(r2)
   229cc:	1000021e 	bne	r2,zero,229d8 <xTaskIncrementTick+0x80>
   229d0:	00800044 	movi	r2,1
   229d4:	00000106 	br	229dc <xTaskIncrementTick+0x84>
   229d8:	0005883a 	mov	r2,zero
   229dc:	10803fcc 	andi	r2,r2,255
   229e0:	10000326 	beq	r2,zero,229f0 <xTaskIncrementTick+0x98>
					/* The delayed list is empty.  Set xNextTaskUnblockTime
					to the maximum possible value so it is extremely
					unlikely that the
					if( xTickCount >= xNextTaskUnblockTime ) test will pass
					next time through. */
					xNextTaskUnblockTime = portMAX_DELAY; /*lint !e961 MISRA exception as the casts are only redundant for some ports. */
   229e4:	00bfffc4 	movi	r2,-1
   229e8:	d0a02715 	stw	r2,-32612(gp)
					break;
   229ec:	00003206 	br	22ab8 <xTaskIncrementTick+0x160>
				{
					/* The delayed list is not empty, get the value of the
					item at the head of the delayed list.  This is the time
					at which the task at the head of the delayed list must
					be removed from the Blocked state. */
					pxTCB = ( TCB_t * ) listGET_OWNER_OF_HEAD_ENTRY( pxDelayedTaskList );
   229f0:	d0a01d17 	ldw	r2,-32652(gp)
   229f4:	10800317 	ldw	r2,12(r2)
   229f8:	10800317 	ldw	r2,12(r2)
   229fc:	e0bffe15 	stw	r2,-8(fp)
					xItemValue = listGET_LIST_ITEM_VALUE( &( pxTCB->xStateListItem ) );
   22a00:	e0bffe17 	ldw	r2,-8(fp)
   22a04:	10800117 	ldw	r2,4(r2)
   22a08:	e0bfff15 	stw	r2,-4(fp)

					if( xConstTickCount < xItemValue )
   22a0c:	e0fffc17 	ldw	r3,-16(fp)
   22a10:	e0bfff17 	ldw	r2,-4(fp)
   22a14:	1880032e 	bgeu	r3,r2,22a24 <xTaskIncrementTick+0xcc>
						/* It is not time to unblock this item yet, but the
						item value is the time at which the task at the head
						of the blocked list must be removed from the Blocked
						state -	so record the item value in
						xNextTaskUnblockTime. */
						xNextTaskUnblockTime = xItemValue;
   22a18:	e0bfff17 	ldw	r2,-4(fp)
   22a1c:	d0a02715 	stw	r2,-32612(gp)
						break;
   22a20:	00002506 	br	22ab8 <xTaskIncrementTick+0x160>
					{
						mtCOVERAGE_TEST_MARKER();
					}

					/* It is time to remove the item from the Blocked state. */
					( void ) uxListRemove( &( pxTCB->xStateListItem ) );
   22a24:	e0bffe17 	ldw	r2,-8(fp)
   22a28:	10800104 	addi	r2,r2,4
   22a2c:	1009883a 	mov	r4,r2
   22a30:	0020cd00 	call	20cd0 <uxListRemove>

					/* Is the task waiting on an event also?  If so remove
					it from the event list. */
					if( listLIST_ITEM_CONTAINER( &( pxTCB->xEventListItem ) ) != NULL )
   22a34:	e0bffe17 	ldw	r2,-8(fp)
   22a38:	10800a17 	ldw	r2,40(r2)
   22a3c:	10000426 	beq	r2,zero,22a50 <xTaskIncrementTick+0xf8>
					{
						( void ) uxListRemove( &( pxTCB->xEventListItem ) );
   22a40:	e0bffe17 	ldw	r2,-8(fp)
   22a44:	10800604 	addi	r2,r2,24
   22a48:	1009883a 	mov	r4,r2
   22a4c:	0020cd00 	call	20cd0 <uxListRemove>
						mtCOVERAGE_TEST_MARKER();
					}

					/* Place the unblocked task into the appropriate ready
					list. */
					prvAddTaskToReadyList( pxTCB );
   22a50:	e0bffe17 	ldw	r2,-8(fp)
   22a54:	10800b17 	ldw	r2,44(r2)
   22a58:	d0e02117 	ldw	r3,-32636(gp)
   22a5c:	1880032e 	bgeu	r3,r2,22a6c <xTaskIncrementTick+0x114>
   22a60:	e0bffe17 	ldw	r2,-8(fp)
   22a64:	10800b17 	ldw	r2,44(r2)
   22a68:	d0a02115 	stw	r2,-32636(gp)
   22a6c:	e0bffe17 	ldw	r2,-8(fp)
   22a70:	10800b17 	ldw	r2,44(r2)
   22a74:	10c00524 	muli	r3,r2,20
   22a78:	00800134 	movhi	r2,4
   22a7c:	10a34e04 	addi	r2,r2,-29384
   22a80:	1887883a 	add	r3,r3,r2
   22a84:	e0bffe17 	ldw	r2,-8(fp)
   22a88:	10800104 	addi	r2,r2,4
   22a8c:	100b883a 	mov	r5,r2
   22a90:	1809883a 	mov	r4,r3
   22a94:	0020b6c0 	call	20b6c <vListInsertEnd>
					{
						/* Preemption is on, but a context switch should
						only be performed if the unblocked task has a
						priority that is equal to or higher than the
						currently executing task. */
						if( pxTCB->uxPriority >= pxCurrentTCB->uxPriority )
   22a98:	e0bffe17 	ldw	r2,-8(fp)
   22a9c:	10c00b17 	ldw	r3,44(r2)
   22aa0:	d0a01c17 	ldw	r2,-32656(gp)
   22aa4:	10800b17 	ldw	r2,44(r2)
   22aa8:	18bfc636 	bltu	r3,r2,229c4 <__reset+0xfff829c4>
						{
							xSwitchRequired = pdTRUE;
   22aac:	00800044 	movi	r2,1
   22ab0:	e0bffb15 	stw	r2,-20(fp)
							mtCOVERAGE_TEST_MARKER();
						}
					}
					#endif /* configUSE_PREEMPTION */
				}
			}
   22ab4:	003fc306 	br	229c4 <__reset+0xfff829c4>
		/* Tasks of equal priority to the currently running task will share
		processing time (time slice) if preemption is on, and the application
		writer has not explicitly turned time slicing off. */
		#if ( ( configUSE_PREEMPTION == 1 ) && ( configUSE_TIME_SLICING == 1 ) )
		{
			if( listCURRENT_LIST_LENGTH( &( pxReadyTasksLists[ pxCurrentTCB->uxPriority ] ) ) > ( UBaseType_t ) 1 )
   22ab8:	d0a01c17 	ldw	r2,-32656(gp)
   22abc:	10c00b17 	ldw	r3,44(r2)
   22ac0:	00800134 	movhi	r2,4
   22ac4:	10a34e04 	addi	r2,r2,-29384
   22ac8:	18c00524 	muli	r3,r3,20
   22acc:	10c5883a 	add	r2,r2,r3
   22ad0:	10800017 	ldw	r2,0(r2)
   22ad4:	108000b0 	cmpltui	r2,r2,2
   22ad8:	1000061e 	bne	r2,zero,22af4 <xTaskIncrementTick+0x19c>
			{
				xSwitchRequired = pdTRUE;
   22adc:	00800044 	movi	r2,1
   22ae0:	e0bffb15 	stw	r2,-20(fp)
   22ae4:	00000306 	br	22af4 <xTaskIncrementTick+0x19c>
		}
		#endif /* configUSE_TICK_HOOK */
	}
	else
	{
		++uxPendedTicks;
   22ae8:	d0a02317 	ldw	r2,-32628(gp)
   22aec:	10800044 	addi	r2,r2,1
   22af0:	d0a02315 	stw	r2,-32628(gp)
		#endif
	}

	#if ( configUSE_PREEMPTION == 1 )
	{
		if( xYieldPending != pdFALSE )
   22af4:	d0a02417 	ldw	r2,-32624(gp)
   22af8:	10000226 	beq	r2,zero,22b04 <xTaskIncrementTick+0x1ac>
		{
			xSwitchRequired = pdTRUE;
   22afc:	00800044 	movi	r2,1
   22b00:	e0bffb15 	stw	r2,-20(fp)
			mtCOVERAGE_TEST_MARKER();
		}
	}
	#endif /* configUSE_PREEMPTION */

	return xSwitchRequired;
   22b04:	e0bffb17 	ldw	r2,-20(fp)
}
   22b08:	e037883a 	mov	sp,fp
   22b0c:	dfc00117 	ldw	ra,4(sp)
   22b10:	df000017 	ldw	fp,0(sp)
   22b14:	dec00204 	addi	sp,sp,8
   22b18:	f800283a 	ret

00022b1c <vTaskSwitchContext>:

#endif /* configUSE_APPLICATION_TASK_TAG */
/*-----------------------------------------------------------*/

void vTaskSwitchContext( void )
{
   22b1c:	defffd04 	addi	sp,sp,-12
   22b20:	df000215 	stw	fp,8(sp)
   22b24:	df000204 	addi	fp,sp,8
	if( uxSchedulerSuspended != ( UBaseType_t ) pdFALSE )
   22b28:	d0a02917 	ldw	r2,-32604(gp)
   22b2c:	10000326 	beq	r2,zero,22b3c <vTaskSwitchContext+0x20>
	{
		/* The scheduler is currently suspended - do not allow a context
		switch. */
		xYieldPending = pdTRUE;
   22b30:	00800044 	movi	r2,1
   22b34:	d0a02415 	stw	r2,-32624(gp)
			structure specific to this task. */
			_impure_ptr = &( pxCurrentTCB->xNewLib_reent );
		}
		#endif /* configUSE_NEWLIB_REENTRANT */
	}
}
   22b38:	00002906 	br	22be0 <vTaskSwitchContext+0xc4>
		switch. */
		xYieldPending = pdTRUE;
	}
	else
	{
		xYieldPending = pdFALSE;
   22b3c:	d0202415 	stw	zero,-32624(gp)
		/* Check for stack overflow, if configured. */
		taskCHECK_FOR_STACK_OVERFLOW();

		/* Select a new task to run using either the generic C or port
		optimised asm code. */
		taskSELECT_HIGHEST_PRIORITY_TASK();
   22b40:	d0a02117 	ldw	r2,-32636(gp)
   22b44:	e0bffe15 	stw	r2,-8(fp)
   22b48:	00000306 	br	22b58 <vTaskSwitchContext+0x3c>
   22b4c:	e0bffe17 	ldw	r2,-8(fp)
   22b50:	10bfffc4 	addi	r2,r2,-1
   22b54:	e0bffe15 	stw	r2,-8(fp)
   22b58:	00800134 	movhi	r2,4
   22b5c:	10a34e04 	addi	r2,r2,-29384
   22b60:	e0fffe17 	ldw	r3,-8(fp)
   22b64:	18c00524 	muli	r3,r3,20
   22b68:	10c5883a 	add	r2,r2,r3
   22b6c:	10800017 	ldw	r2,0(r2)
   22b70:	103ff626 	beq	r2,zero,22b4c <__reset+0xfff82b4c>
   22b74:	e0bffe17 	ldw	r2,-8(fp)
   22b78:	10c00524 	muli	r3,r2,20
   22b7c:	00800134 	movhi	r2,4
   22b80:	10a34e04 	addi	r2,r2,-29384
   22b84:	1885883a 	add	r2,r3,r2
   22b88:	e0bfff15 	stw	r2,-4(fp)
   22b8c:	e0bfff17 	ldw	r2,-4(fp)
   22b90:	10800117 	ldw	r2,4(r2)
   22b94:	10c00117 	ldw	r3,4(r2)
   22b98:	e0bfff17 	ldw	r2,-4(fp)
   22b9c:	10c00115 	stw	r3,4(r2)
   22ba0:	e0bfff17 	ldw	r2,-4(fp)
   22ba4:	10c00117 	ldw	r3,4(r2)
   22ba8:	e0bfff17 	ldw	r2,-4(fp)
   22bac:	10800204 	addi	r2,r2,8
   22bb0:	1880051e 	bne	r3,r2,22bc8 <vTaskSwitchContext+0xac>
   22bb4:	e0bfff17 	ldw	r2,-4(fp)
   22bb8:	10800117 	ldw	r2,4(r2)
   22bbc:	10c00117 	ldw	r3,4(r2)
   22bc0:	e0bfff17 	ldw	r2,-4(fp)
   22bc4:	10c00115 	stw	r3,4(r2)
   22bc8:	e0bfff17 	ldw	r2,-4(fp)
   22bcc:	10800117 	ldw	r2,4(r2)
   22bd0:	10800317 	ldw	r2,12(r2)
   22bd4:	d0a01c15 	stw	r2,-32656(gp)
   22bd8:	e0bffe17 	ldw	r2,-8(fp)
   22bdc:	d0a02115 	stw	r2,-32636(gp)
			structure specific to this task. */
			_impure_ptr = &( pxCurrentTCB->xNewLib_reent );
		}
		#endif /* configUSE_NEWLIB_REENTRANT */
	}
}
   22be0:	0001883a 	nop
   22be4:	e037883a 	mov	sp,fp
   22be8:	df000017 	ldw	fp,0(sp)
   22bec:	dec00104 	addi	sp,sp,4
   22bf0:	f800283a 	ret

00022bf4 <vTaskPlaceOnEventList>:
/*-----------------------------------------------------------*/

void vTaskPlaceOnEventList( List_t * const pxEventList, const TickType_t xTicksToWait )
{
   22bf4:	defffc04 	addi	sp,sp,-16
   22bf8:	dfc00315 	stw	ra,12(sp)
   22bfc:	df000215 	stw	fp,8(sp)
   22c00:	df000204 	addi	fp,sp,8
   22c04:	e13ffe15 	stw	r4,-8(fp)
   22c08:	e17fff15 	stw	r5,-4(fp)

	/* Place the event list item of the TCB in the appropriate event list.
	This is placed in the list in priority order so the highest priority task
	is the first to be woken by the event.  The queue that contains the event
	list is locked, preventing simultaneous access from interrupts. */
	vListInsert( pxEventList, &( pxCurrentTCB->xEventListItem ) );
   22c0c:	d0a01c17 	ldw	r2,-32656(gp)
   22c10:	10800604 	addi	r2,r2,24
   22c14:	100b883a 	mov	r5,r2
   22c18:	e13ffe17 	ldw	r4,-8(fp)
   22c1c:	0020bf80 	call	20bf8 <vListInsert>

	prvAddCurrentTaskToDelayedList( xTicksToWait, pdTRUE );
   22c20:	01400044 	movi	r5,1
   22c24:	e13fff17 	ldw	r4,-4(fp)
   22c28:	00238d80 	call	238d8 <prvAddCurrentTaskToDelayedList>
}
   22c2c:	0001883a 	nop
   22c30:	e037883a 	mov	sp,fp
   22c34:	dfc00117 	ldw	ra,4(sp)
   22c38:	df000017 	ldw	fp,0(sp)
   22c3c:	dec00204 	addi	sp,sp,8
   22c40:	f800283a 	ret

00022c44 <vTaskPlaceOnUnorderedEventList>:
/*-----------------------------------------------------------*/

void vTaskPlaceOnUnorderedEventList( List_t * pxEventList, const TickType_t xItemValue, const TickType_t xTicksToWait )
{
   22c44:	defffb04 	addi	sp,sp,-20
   22c48:	dfc00415 	stw	ra,16(sp)
   22c4c:	df000315 	stw	fp,12(sp)
   22c50:	df000304 	addi	fp,sp,12
   22c54:	e13ffd15 	stw	r4,-12(fp)
   22c58:	e17ffe15 	stw	r5,-8(fp)
   22c5c:	e1bfff15 	stw	r6,-4(fp)
	configASSERT( uxSchedulerSuspended != 0 );

	/* Store the item value in the event list item.  It is safe to access the
	event list item here as interrupts won't access the event list item of a
	task that is not in the Blocked state. */
	listSET_LIST_ITEM_VALUE( &( pxCurrentTCB->xEventListItem ), xItemValue | taskEVENT_LIST_ITEM_VALUE_IN_USE );
   22c60:	d0a01c17 	ldw	r2,-32656(gp)
   22c64:	e0fffe17 	ldw	r3,-8(fp)
   22c68:	18e00034 	orhi	r3,r3,32768
   22c6c:	10c00615 	stw	r3,24(r2)
	/* Place the event list item of the TCB at the end of the appropriate event
	list.  It is safe to access the event list here because it is part of an
	event group implementation - and interrupts don't access event groups
	directly (instead they access them indirectly by pending function calls to
	the task level). */
	vListInsertEnd( pxEventList, &( pxCurrentTCB->xEventListItem ) );
   22c70:	d0a01c17 	ldw	r2,-32656(gp)
   22c74:	10800604 	addi	r2,r2,24
   22c78:	100b883a 	mov	r5,r2
   22c7c:	e13ffd17 	ldw	r4,-12(fp)
   22c80:	0020b6c0 	call	20b6c <vListInsertEnd>

	prvAddCurrentTaskToDelayedList( xTicksToWait, pdTRUE );
   22c84:	01400044 	movi	r5,1
   22c88:	e13fff17 	ldw	r4,-4(fp)
   22c8c:	00238d80 	call	238d8 <prvAddCurrentTaskToDelayedList>
}
   22c90:	0001883a 	nop
   22c94:	e037883a 	mov	sp,fp
   22c98:	dfc00117 	ldw	ra,4(sp)
   22c9c:	df000017 	ldw	fp,0(sp)
   22ca0:	dec00204 	addi	sp,sp,8
   22ca4:	f800283a 	ret

00022ca8 <xTaskRemoveFromEventList>:

#endif /* configUSE_TIMERS */
/*-----------------------------------------------------------*/

BaseType_t xTaskRemoveFromEventList( const List_t * const pxEventList )
{
   22ca8:	defffb04 	addi	sp,sp,-20
   22cac:	dfc00415 	stw	ra,16(sp)
   22cb0:	df000315 	stw	fp,12(sp)
   22cb4:	df000304 	addi	fp,sp,12
   22cb8:	e13fff15 	stw	r4,-4(fp)
	get called - the lock count on the queue will get modified instead.  This
	means exclusive access to the event list is guaranteed here.

	This function assumes that a check has already been made to ensure that
	pxEventList is not empty. */
	pxUnblockedTCB = ( TCB_t * ) listGET_OWNER_OF_HEAD_ENTRY( pxEventList );
   22cbc:	e0bfff17 	ldw	r2,-4(fp)
   22cc0:	10800317 	ldw	r2,12(r2)
   22cc4:	10800317 	ldw	r2,12(r2)
   22cc8:	e0bffe15 	stw	r2,-8(fp)
	configASSERT( pxUnblockedTCB );
	( void ) uxListRemove( &( pxUnblockedTCB->xEventListItem ) );
   22ccc:	e0bffe17 	ldw	r2,-8(fp)
   22cd0:	10800604 	addi	r2,r2,24
   22cd4:	1009883a 	mov	r4,r2
   22cd8:	0020cd00 	call	20cd0 <uxListRemove>

	if( uxSchedulerSuspended == ( UBaseType_t ) pdFALSE )
   22cdc:	d0a02917 	ldw	r2,-32604(gp)
   22ce0:	1000171e 	bne	r2,zero,22d40 <xTaskRemoveFromEventList+0x98>
	{
		( void ) uxListRemove( &( pxUnblockedTCB->xStateListItem ) );
   22ce4:	e0bffe17 	ldw	r2,-8(fp)
   22ce8:	10800104 	addi	r2,r2,4
   22cec:	1009883a 	mov	r4,r2
   22cf0:	0020cd00 	call	20cd0 <uxListRemove>
		prvAddTaskToReadyList( pxUnblockedTCB );
   22cf4:	e0bffe17 	ldw	r2,-8(fp)
   22cf8:	10800b17 	ldw	r2,44(r2)
   22cfc:	d0e02117 	ldw	r3,-32636(gp)
   22d00:	1880032e 	bgeu	r3,r2,22d10 <xTaskRemoveFromEventList+0x68>
   22d04:	e0bffe17 	ldw	r2,-8(fp)
   22d08:	10800b17 	ldw	r2,44(r2)
   22d0c:	d0a02115 	stw	r2,-32636(gp)
   22d10:	e0bffe17 	ldw	r2,-8(fp)
   22d14:	10800b17 	ldw	r2,44(r2)
   22d18:	10c00524 	muli	r3,r2,20
   22d1c:	00800134 	movhi	r2,4
   22d20:	10a34e04 	addi	r2,r2,-29384
   22d24:	1887883a 	add	r3,r3,r2
   22d28:	e0bffe17 	ldw	r2,-8(fp)
   22d2c:	10800104 	addi	r2,r2,4
   22d30:	100b883a 	mov	r5,r2
   22d34:	1809883a 	mov	r4,r3
   22d38:	0020b6c0 	call	20b6c <vListInsertEnd>
   22d3c:	00000606 	br	22d58 <xTaskRemoveFromEventList+0xb0>
	}
	else
	{
		/* The delayed and ready lists cannot be accessed, so hold this task
		pending until the scheduler is resumed. */
		vListInsertEnd( &( xPendingReadyList ), &( pxUnblockedTCB->xEventListItem ) );
   22d40:	e0bffe17 	ldw	r2,-8(fp)
   22d44:	10800604 	addi	r2,r2,24
   22d48:	100b883a 	mov	r5,r2
   22d4c:	01000134 	movhi	r4,4
   22d50:	21237104 	addi	r4,r4,-29244
   22d54:	0020b6c0 	call	20b6c <vListInsertEnd>
	}

	if( pxUnblockedTCB->uxPriority > pxCurrentTCB->uxPriority )
   22d58:	e0bffe17 	ldw	r2,-8(fp)
   22d5c:	10800b17 	ldw	r2,44(r2)
   22d60:	d0e01c17 	ldw	r3,-32656(gp)
   22d64:	18c00b17 	ldw	r3,44(r3)
   22d68:	1880052e 	bgeu	r3,r2,22d80 <xTaskRemoveFromEventList+0xd8>
	{
		/* Return true if the task removed from the event list has a higher
		priority than the calling task.  This allows the calling task to know if
		it should force a context switch now. */
		xReturn = pdTRUE;
   22d6c:	00800044 	movi	r2,1
   22d70:	e0bffd15 	stw	r2,-12(fp)

		/* Mark that a yield is pending in case the user is not using the
		"xHigherPriorityTaskWoken" parameter to an ISR safe FreeRTOS function. */
		xYieldPending = pdTRUE;
   22d74:	00800044 	movi	r2,1
   22d78:	d0a02415 	stw	r2,-32624(gp)
   22d7c:	00000106 	br	22d84 <xTaskRemoveFromEventList+0xdc>
	}
	else
	{
		xReturn = pdFALSE;
   22d80:	e03ffd15 	stw	zero,-12(fp)
		ensure it is updated at the earliest possible time. */
		prvResetNextTaskUnblockTime();
	}
	#endif

	return xReturn;
   22d84:	e0bffd17 	ldw	r2,-12(fp)
}
   22d88:	e037883a 	mov	sp,fp
   22d8c:	dfc00117 	ldw	ra,4(sp)
   22d90:	df000017 	ldw	fp,0(sp)
   22d94:	dec00204 	addi	sp,sp,8
   22d98:	f800283a 	ret

00022d9c <xTaskRemoveFromUnorderedEventList>:
/*-----------------------------------------------------------*/

BaseType_t xTaskRemoveFromUnorderedEventList( ListItem_t * pxEventListItem, const TickType_t xItemValue )
{
   22d9c:	defffa04 	addi	sp,sp,-24
   22da0:	dfc00515 	stw	ra,20(sp)
   22da4:	df000415 	stw	fp,16(sp)
   22da8:	df000404 	addi	fp,sp,16
   22dac:	e13ffe15 	stw	r4,-8(fp)
   22db0:	e17fff15 	stw	r5,-4(fp)
	/* THIS FUNCTION MUST BE CALLED WITH THE SCHEDULER SUSPENDED.  It is used by
	the event flags implementation. */
	configASSERT( uxSchedulerSuspended != pdFALSE );

	/* Store the new item value in the event list. */
	listSET_LIST_ITEM_VALUE( pxEventListItem, xItemValue | taskEVENT_LIST_ITEM_VALUE_IN_USE );
   22db4:	e0bfff17 	ldw	r2,-4(fp)
   22db8:	10e00034 	orhi	r3,r2,32768
   22dbc:	e0bffe17 	ldw	r2,-8(fp)
   22dc0:	10c00015 	stw	r3,0(r2)

	/* Remove the event list form the event flag.  Interrupts do not access
	event flags. */
	pxUnblockedTCB = ( TCB_t * ) listGET_LIST_ITEM_OWNER( pxEventListItem );
   22dc4:	e0bffe17 	ldw	r2,-8(fp)
   22dc8:	10800317 	ldw	r2,12(r2)
   22dcc:	e0bffd15 	stw	r2,-12(fp)
	configASSERT( pxUnblockedTCB );
	( void ) uxListRemove( pxEventListItem );
   22dd0:	e13ffe17 	ldw	r4,-8(fp)
   22dd4:	0020cd00 	call	20cd0 <uxListRemove>

	/* Remove the task from the delayed list and add it to the ready list.  The
	scheduler is suspended so interrupts will not be accessing the ready
	lists. */
	( void ) uxListRemove( &( pxUnblockedTCB->xStateListItem ) );
   22dd8:	e0bffd17 	ldw	r2,-12(fp)
   22ddc:	10800104 	addi	r2,r2,4
   22de0:	1009883a 	mov	r4,r2
   22de4:	0020cd00 	call	20cd0 <uxListRemove>
	prvAddTaskToReadyList( pxUnblockedTCB );
   22de8:	e0bffd17 	ldw	r2,-12(fp)
   22dec:	10800b17 	ldw	r2,44(r2)
   22df0:	d0e02117 	ldw	r3,-32636(gp)
   22df4:	1880032e 	bgeu	r3,r2,22e04 <xTaskRemoveFromUnorderedEventList+0x68>
   22df8:	e0bffd17 	ldw	r2,-12(fp)
   22dfc:	10800b17 	ldw	r2,44(r2)
   22e00:	d0a02115 	stw	r2,-32636(gp)
   22e04:	e0bffd17 	ldw	r2,-12(fp)
   22e08:	10800b17 	ldw	r2,44(r2)
   22e0c:	10c00524 	muli	r3,r2,20
   22e10:	00800134 	movhi	r2,4
   22e14:	10a34e04 	addi	r2,r2,-29384
   22e18:	1887883a 	add	r3,r3,r2
   22e1c:	e0bffd17 	ldw	r2,-12(fp)
   22e20:	10800104 	addi	r2,r2,4
   22e24:	100b883a 	mov	r5,r2
   22e28:	1809883a 	mov	r4,r3
   22e2c:	0020b6c0 	call	20b6c <vListInsertEnd>

	if( pxUnblockedTCB->uxPriority > pxCurrentTCB->uxPriority )
   22e30:	e0bffd17 	ldw	r2,-12(fp)
   22e34:	10800b17 	ldw	r2,44(r2)
   22e38:	d0e01c17 	ldw	r3,-32656(gp)
   22e3c:	18c00b17 	ldw	r3,44(r3)
   22e40:	1880052e 	bgeu	r3,r2,22e58 <xTaskRemoveFromUnorderedEventList+0xbc>
	{
		/* Return true if the task removed from the event list has
		a higher priority than the calling task.  This allows
		the calling task to know if it should force a context
		switch now. */
		xReturn = pdTRUE;
   22e44:	00800044 	movi	r2,1
   22e48:	e0bffc15 	stw	r2,-16(fp)

		/* Mark that a yield is pending in case the user is not using the
		"xHigherPriorityTaskWoken" parameter to an ISR safe FreeRTOS function. */
		xYieldPending = pdTRUE;
   22e4c:	00800044 	movi	r2,1
   22e50:	d0a02415 	stw	r2,-32624(gp)
   22e54:	00000106 	br	22e5c <xTaskRemoveFromUnorderedEventList+0xc0>
	}
	else
	{
		xReturn = pdFALSE;
   22e58:	e03ffc15 	stw	zero,-16(fp)
	}

	return xReturn;
   22e5c:	e0bffc17 	ldw	r2,-16(fp)
}
   22e60:	e037883a 	mov	sp,fp
   22e64:	dfc00117 	ldw	ra,4(sp)
   22e68:	df000017 	ldw	fp,0(sp)
   22e6c:	dec00204 	addi	sp,sp,8
   22e70:	f800283a 	ret

00022e74 <vTaskSetTimeOutState>:
/*-----------------------------------------------------------*/

void vTaskSetTimeOutState( TimeOut_t * const pxTimeOut )
{
   22e74:	defffe04 	addi	sp,sp,-8
   22e78:	df000115 	stw	fp,4(sp)
   22e7c:	df000104 	addi	fp,sp,4
   22e80:	e13fff15 	stw	r4,-4(fp)
	configASSERT( pxTimeOut );
	pxTimeOut->xOverflowCount = xNumOfOverflows;
   22e84:	d0e02517 	ldw	r3,-32620(gp)
   22e88:	e0bfff17 	ldw	r2,-4(fp)
   22e8c:	10c00015 	stw	r3,0(r2)
	pxTimeOut->xTimeOnEntering = xTickCount;
   22e90:	d0e02017 	ldw	r3,-32640(gp)
   22e94:	e0bfff17 	ldw	r2,-4(fp)
   22e98:	10c00115 	stw	r3,4(r2)
}
   22e9c:	0001883a 	nop
   22ea0:	e037883a 	mov	sp,fp
   22ea4:	df000017 	ldw	fp,0(sp)
   22ea8:	dec00104 	addi	sp,sp,4
   22eac:	f800283a 	ret

00022eb0 <xTaskCheckForTimeOut>:
/*-----------------------------------------------------------*/

BaseType_t xTaskCheckForTimeOut( TimeOut_t * const pxTimeOut, TickType_t * const pxTicksToWait )
{
   22eb0:	defffa04 	addi	sp,sp,-24
   22eb4:	dfc00515 	stw	ra,20(sp)
   22eb8:	df000415 	stw	fp,16(sp)
   22ebc:	df000404 	addi	fp,sp,16
   22ec0:	e13ffe15 	stw	r4,-8(fp)
   22ec4:	e17fff15 	stw	r5,-4(fp)
BaseType_t xReturn;

	configASSERT( pxTimeOut );
	configASSERT( pxTicksToWait );

	taskENTER_CRITICAL();
   22ec8:	002311c0 	call	2311c <vTaskEnterCritical>
	{
		/* Minor optimisation.  The tick count cannot change in this block. */
		const TickType_t xConstTickCount = xTickCount;
   22ecc:	d0a02017 	ldw	r2,-32640(gp)
   22ed0:	e0bffd15 	stw	r2,-12(fp)
			}
			else
		#endif

		#if ( INCLUDE_vTaskSuspend == 1 )
			if( *pxTicksToWait == portMAX_DELAY )
   22ed4:	e0bfff17 	ldw	r2,-4(fp)
   22ed8:	10800017 	ldw	r2,0(r2)
   22edc:	10bfffd8 	cmpnei	r2,r2,-1
   22ee0:	1000021e 	bne	r2,zero,22eec <xTaskCheckForTimeOut+0x3c>
			{
				/* If INCLUDE_vTaskSuspend is set to 1 and the block time
				specified is the maximum block time then the task should block
				indefinitely, and therefore never time out. */
				xReturn = pdFALSE;
   22ee4:	e03ffc15 	stw	zero,-16(fp)
   22ee8:	00002106 	br	22f70 <xTaskCheckForTimeOut+0xc0>
			}
			else
		#endif

		if( ( xNumOfOverflows != pxTimeOut->xOverflowCount ) && ( xConstTickCount >= pxTimeOut->xTimeOnEntering ) ) /*lint !e525 Indentation preferred as is to make code within pre-processor directives clearer. */
   22eec:	e0bffe17 	ldw	r2,-8(fp)
   22ef0:	10c00017 	ldw	r3,0(r2)
   22ef4:	d0a02517 	ldw	r2,-32620(gp)
   22ef8:	18800726 	beq	r3,r2,22f18 <xTaskCheckForTimeOut+0x68>
   22efc:	e0bffe17 	ldw	r2,-8(fp)
   22f00:	10800117 	ldw	r2,4(r2)
   22f04:	e0fffd17 	ldw	r3,-12(fp)
   22f08:	18800336 	bltu	r3,r2,22f18 <xTaskCheckForTimeOut+0x68>
			/* The tick count is greater than the time at which
			vTaskSetTimeout() was called, but has also overflowed since
			vTaskSetTimeOut() was called.  It must have wrapped all the way
			around and gone past again. This passed since vTaskSetTimeout()
			was called. */
			xReturn = pdTRUE;
   22f0c:	00800044 	movi	r2,1
   22f10:	e0bffc15 	stw	r2,-16(fp)
   22f14:	00001606 	br	22f70 <xTaskCheckForTimeOut+0xc0>
		}
		else if( ( ( TickType_t ) ( xConstTickCount - pxTimeOut->xTimeOnEntering ) ) < *pxTicksToWait ) /*lint !e961 Explicit casting is only redundant with some compilers, whereas others require it to prevent integer conversion errors. */
   22f18:	e0bffe17 	ldw	r2,-8(fp)
   22f1c:	10800117 	ldw	r2,4(r2)
   22f20:	e0fffd17 	ldw	r3,-12(fp)
   22f24:	1887c83a 	sub	r3,r3,r2
   22f28:	e0bfff17 	ldw	r2,-4(fp)
   22f2c:	10800017 	ldw	r2,0(r2)
   22f30:	18800d2e 	bgeu	r3,r2,22f68 <xTaskCheckForTimeOut+0xb8>
		{
			/* Not a genuine timeout. Adjust parameters for time remaining. */
			*pxTicksToWait -= ( xConstTickCount - pxTimeOut->xTimeOnEntering );
   22f34:	e0bfff17 	ldw	r2,-4(fp)
   22f38:	10c00017 	ldw	r3,0(r2)
   22f3c:	e0bffe17 	ldw	r2,-8(fp)
   22f40:	11000117 	ldw	r4,4(r2)
   22f44:	e0bffd17 	ldw	r2,-12(fp)
   22f48:	2085c83a 	sub	r2,r4,r2
   22f4c:	1887883a 	add	r3,r3,r2
   22f50:	e0bfff17 	ldw	r2,-4(fp)
   22f54:	10c00015 	stw	r3,0(r2)
			vTaskSetTimeOutState( pxTimeOut );
   22f58:	e13ffe17 	ldw	r4,-8(fp)
   22f5c:	0022e740 	call	22e74 <vTaskSetTimeOutState>
			xReturn = pdFALSE;
   22f60:	e03ffc15 	stw	zero,-16(fp)
   22f64:	00000206 	br	22f70 <xTaskCheckForTimeOut+0xc0>
		}
		else
		{
			xReturn = pdTRUE;
   22f68:	00800044 	movi	r2,1
   22f6c:	e0bffc15 	stw	r2,-16(fp)
		}
	}
	taskEXIT_CRITICAL();
   22f70:	00231700 	call	23170 <vTaskExitCritical>

	return xReturn;
   22f74:	e0bffc17 	ldw	r2,-16(fp)
}
   22f78:	e037883a 	mov	sp,fp
   22f7c:	dfc00117 	ldw	ra,4(sp)
   22f80:	df000017 	ldw	fp,0(sp)
   22f84:	dec00204 	addi	sp,sp,8
   22f88:	f800283a 	ret

00022f8c <vTaskMissedYield>:
/*-----------------------------------------------------------*/

void vTaskMissedYield( void )
{
   22f8c:	deffff04 	addi	sp,sp,-4
   22f90:	df000015 	stw	fp,0(sp)
   22f94:	d839883a 	mov	fp,sp
	xYieldPending = pdTRUE;
   22f98:	00800044 	movi	r2,1
   22f9c:	d0a02415 	stw	r2,-32624(gp)
}
   22fa0:	0001883a 	nop
   22fa4:	e037883a 	mov	sp,fp
   22fa8:	df000017 	ldw	fp,0(sp)
   22fac:	dec00104 	addi	sp,sp,4
   22fb0:	f800283a 	ret

00022fb4 <prvIdleTask>:
 *
 * void prvIdleTask( void *pvParameters );
 *
 */
static portTASK_FUNCTION( prvIdleTask, pvParameters )
{
   22fb4:	defffd04 	addi	sp,sp,-12
   22fb8:	dfc00215 	stw	ra,8(sp)
   22fbc:	df000115 	stw	fp,4(sp)
   22fc0:	df000104 	addi	fp,sp,4
   22fc4:	e13fff15 	stw	r4,-4(fp)

	for( ;; )
	{
		/* See if any tasks have deleted themselves - if so then the idle task
		is responsible for freeing the deleted task's TCB and stack. */
		prvCheckTasksWaitingTermination();
   22fc8:	00230940 	call	23094 <prvCheckTasksWaitingTermination>

			A critical region is not required here as we are just reading from
			the list, and an occasional incorrect value will not matter.  If
			the ready list at the idle priority contains more than one task
			then a task other than the idle task is ready to execute. */
			if( listCURRENT_LIST_LENGTH( &( pxReadyTasksLists[ tskIDLE_PRIORITY ] ) ) > ( UBaseType_t ) 1 )
   22fcc:	00800134 	movhi	r2,4
   22fd0:	10a34e04 	addi	r2,r2,-29384
   22fd4:	10800017 	ldw	r2,0(r2)
   22fd8:	108000b0 	cmpltui	r2,r2,2
   22fdc:	103ffa1e 	bne	r2,zero,22fc8 <__reset+0xfff82fc8>
			{
				taskYIELD();
   22fe0:	003b683a 	trap	0
			{
				mtCOVERAGE_TEST_MARKER();
			}
		}
		#endif /* configUSE_TICKLESS_IDLE */
	}
   22fe4:	003ff806 	br	22fc8 <__reset+0xfff82fc8>

00022fe8 <prvInitialiseTaskLists>:

#endif /* portUSING_MPU_WRAPPERS */
/*-----------------------------------------------------------*/

static void prvInitialiseTaskLists( void )
{
   22fe8:	defffd04 	addi	sp,sp,-12
   22fec:	dfc00215 	stw	ra,8(sp)
   22ff0:	df000115 	stw	fp,4(sp)
   22ff4:	df000104 	addi	fp,sp,4
UBaseType_t uxPriority;

	for( uxPriority = ( UBaseType_t ) 0U; uxPriority < ( UBaseType_t ) configMAX_PRIORITIES; uxPriority++ )
   22ff8:	e03fff15 	stw	zero,-4(fp)
   22ffc:	00000a06 	br	23028 <prvInitialiseTaskLists+0x40>
	{
		vListInitialise( &( pxReadyTasksLists[ uxPriority ] ) );
   23000:	e0bfff17 	ldw	r2,-4(fp)
   23004:	10c00524 	muli	r3,r2,20
   23008:	00800134 	movhi	r2,4
   2300c:	10a34e04 	addi	r2,r2,-29384
   23010:	1885883a 	add	r2,r3,r2
   23014:	1009883a 	mov	r4,r2
   23018:	0020ad80 	call	20ad8 <vListInitialise>

static void prvInitialiseTaskLists( void )
{
UBaseType_t uxPriority;

	for( uxPriority = ( UBaseType_t ) 0U; uxPriority < ( UBaseType_t ) configMAX_PRIORITIES; uxPriority++ )
   2301c:	e0bfff17 	ldw	r2,-4(fp)
   23020:	10800044 	addi	r2,r2,1
   23024:	e0bfff15 	stw	r2,-4(fp)
   23028:	e0bfff17 	ldw	r2,-4(fp)
   2302c:	10800170 	cmpltui	r2,r2,5
   23030:	103ff31e 	bne	r2,zero,23000 <__reset+0xfff83000>
	{
		vListInitialise( &( pxReadyTasksLists[ uxPriority ] ) );
	}

	vListInitialise( &xDelayedTaskList1 );
   23034:	01000134 	movhi	r4,4
   23038:	21236704 	addi	r4,r4,-29284
   2303c:	0020ad80 	call	20ad8 <vListInitialise>
	vListInitialise( &xDelayedTaskList2 );
   23040:	01000134 	movhi	r4,4
   23044:	21236c04 	addi	r4,r4,-29264
   23048:	0020ad80 	call	20ad8 <vListInitialise>
	vListInitialise( &xPendingReadyList );
   2304c:	01000134 	movhi	r4,4
   23050:	21237104 	addi	r4,r4,-29244
   23054:	0020ad80 	call	20ad8 <vListInitialise>
	}
	#endif /* INCLUDE_vTaskDelete */

	#if ( INCLUDE_vTaskSuspend == 1 )
	{
		vListInitialise( &xSuspendedTaskList );
   23058:	01000134 	movhi	r4,4
   2305c:	21237604 	addi	r4,r4,-29224
   23060:	0020ad80 	call	20ad8 <vListInitialise>
	}
	#endif /* INCLUDE_vTaskSuspend */

	/* Start with pxDelayedTaskList using list1 and the pxOverflowDelayedTaskList
	using list2. */
	pxDelayedTaskList = &xDelayedTaskList1;
   23064:	00800134 	movhi	r2,4
   23068:	10a36704 	addi	r2,r2,-29284
   2306c:	d0a01d15 	stw	r2,-32652(gp)
	pxOverflowDelayedTaskList = &xDelayedTaskList2;
   23070:	00800134 	movhi	r2,4
   23074:	10a36c04 	addi	r2,r2,-29264
   23078:	d0a01e15 	stw	r2,-32648(gp)
}
   2307c:	0001883a 	nop
   23080:	e037883a 	mov	sp,fp
   23084:	dfc00117 	ldw	ra,4(sp)
   23088:	df000017 	ldw	fp,0(sp)
   2308c:	dec00204 	addi	sp,sp,8
   23090:	f800283a 	ret

00023094 <prvCheckTasksWaitingTermination>:
/*-----------------------------------------------------------*/

